

Microchip MPLAB XC8 Assembler V2.40 build 20220703182018 
                                                                                               Wed Apr 12 22:28:47 2023

Microchip MPLAB XC8 C Compiler v2.40 (Free license) build 20220703182018 Og1 
     1                           	processor	16F887
     2                           	pagewidth 120
     3                           	opt	flic
     4                           	psect	cinit,global,class=CODE,merge=1,delta=2
     5                           	psect	bssCOMMON,global,class=COMMON,space=1,delta=1,noexec
     6                           	psect	bssBANK0,global,class=BANK0,space=1,delta=1,noexec
     7                           	psect	bssBANK1,global,class=BANK1,space=1,delta=1,noexec
     8                           	psect	cstackBANK1,global,class=BANK1,space=1,delta=1,noexec
     9                           	psect	cstackCOMMON,global,class=COMMON,space=1,delta=1,noexec
    10                           	psect	cstackBANK0,global,class=BANK0,space=1,delta=1,noexec
    11                           	psect	maintext,global,class=CODE,split=1,delta=2
    12                           	psect	text1,local,class=CODE,merge=1,delta=2
    13                           	psect	text2,local,class=CODE,merge=1,delta=2
    14                           	psect	text3,local,class=CODE,merge=1,delta=2,group=1
    15                           	psect	text4,local,class=CODE,merge=1,delta=2,group=1
    16                           	psect	text5,local,class=CODE,merge=1,delta=2
    17                           	psect	text6,local,class=CODE,merge=1,delta=2
    18                           	psect	text7,local,class=CODE,merge=1,delta=2
    19                           	psect	text8,local,class=CODE,merge=1,delta=2,group=1
    20                           	psect	text9,local,class=CODE,merge=1,delta=2,group=1
    21                           	psect	text10,local,class=CODE,merge=1,delta=2,group=1
    22                           	psect	text11,local,class=CODE,merge=1,delta=2,group=1
    23                           	psect	text12,local,class=CODE,merge=1,delta=2
    24                           	psect	intentry,global,class=CODE,delta=2
    25                           	psect	idloc,global,abs,ovrld,class=IDLOC,space=5,delta=2,noexec
    26                           	psect	config,global,abs,ovrld,class=CONFIG,space=4,delta=2,noexec
    27                           	dabs	1,0x7E,2
    28     0000                     
    29                           ; Version 2.40
    30                           ; Generated 17/11/2021 GMT
    31                           ; 
    32                           ; Copyright © 2021, Microchip Technology Inc. and its subsidiaries ("Microchip")
    33                           ; All rights reserved.
    34                           ; 
    35                           ; This software is developed by Microchip Technology Inc. and its subsidiaries ("Microch
      +                          ip").
    36                           ; 
    37                           ; Redistribution and use in source and binary forms, with or without modification, are
    38                           ; permitted provided that the following conditions are met:
    39                           ; 
    40                           ;     1. Redistributions of source code must retain the above copyright notice, this lis
      +                          t of
    41                           ;        conditions and the following disclaimer.
    42                           ; 
    43                           ;     2. Redistributions in binary form must reproduce the above copyright notice, this 
      +                          list
    44                           ;        of conditions and the following disclaimer in the documentation and/or other
    45                           ;        materials provided with the distribution. Publication is not required when
    46                           ;        this file is used in an embedded application.
    47                           ; 
    48                           ;     3. Microchip's name may not be used to endorse or promote products derived from th
      +                          is
    49                           ;        software without specific prior written permission.
    50                           ; 
    51                           ; THIS SOFTWARE IS PROVIDED BY MICROCHIP "AS IS" AND ANY EXPRESS OR IMPLIED WARRANTIES,
    52                           ; INCLUDING, BUT NOT LIMITED TO, THE IMPLIED WARRANTIES OF MERCHANTABILITY AND FITNESS F
      +                          OR
    53                           ; PURPOSE ARE DISCLAIMED.  IN NO EVENT SHALL MICROCHIP BE LIABLE FOR ANY DIRECT, INDIREC
      +                          T,
    54                           ; INCIDENTAL, SPECIAL, EXEMPLARY, OR CONSEQUENTIAL DAMAGES (INCLUDING BUT NOT LIMITED TO
    55                           ; PROCUREMENT OF SUBSTITUTE GOODS OR SERVICES; LOSS OF USE, DATA OR PROFITS; OR BUSINESS
    56                           ; INTERRUPTION) HOWSOEVER CAUSED AND ON ANY THEORY OF LIABILITY, WHETHER IN CONTRACT, ST
      +                          RICT
    57                           ; LIABILITY, OR TORT (INCLUDING NEGLIGENCE OR OTHERWISE) ARISING IN ANY WAY OUT OF THE U
      +                          SE OF
    58                           ; THIS SOFTWARE, EVEN IF ADVISED OF THE POSSIBILITY OF SUCH DAMAGE.
    59                           ; 
    60                           ; 
    61                           ; Code-generator required, PIC16F887 Definitions
    62                           ; 
    63                           ; SFR Addresses
    64     0000                     	;# 
    65     0001                     	;# 
    66     0002                     	;# 
    67     0003                     	;# 
    68     0004                     	;# 
    69     0005                     	;# 
    70     0006                     	;# 
    71     0007                     	;# 
    72     0008                     	;# 
    73     0009                     	;# 
    74     000A                     	;# 
    75     000B                     	;# 
    76     000C                     	;# 
    77     000D                     	;# 
    78     000E                     	;# 
    79     000E                     	;# 
    80     000F                     	;# 
    81     0010                     	;# 
    82     0011                     	;# 
    83     0012                     	;# 
    84     0013                     	;# 
    85     0014                     	;# 
    86     0015                     	;# 
    87     0015                     	;# 
    88     0016                     	;# 
    89     0017                     	;# 
    90     0018                     	;# 
    91     0019                     	;# 
    92     001A                     	;# 
    93     001B                     	;# 
    94     001B                     	;# 
    95     001C                     	;# 
    96     001D                     	;# 
    97     001E                     	;# 
    98     001F                     	;# 
    99     0081                     	;# 
   100     0085                     	;# 
   101     0086                     	;# 
   102     0087                     	;# 
   103     0088                     	;# 
   104     0089                     	;# 
   105     008C                     	;# 
   106     008D                     	;# 
   107     008E                     	;# 
   108     008F                     	;# 
   109     0090                     	;# 
   110     0091                     	;# 
   111     0092                     	;# 
   112     0093                     	;# 
   113     0093                     	;# 
   114     0093                     	;# 
   115     0094                     	;# 
   116     0095                     	;# 
   117     0096                     	;# 
   118     0097                     	;# 
   119     0098                     	;# 
   120     0099                     	;# 
   121     009A                     	;# 
   122     009B                     	;# 
   123     009C                     	;# 
   124     009D                     	;# 
   125     009E                     	;# 
   126     009F                     	;# 
   127     0105                     	;# 
   128     0107                     	;# 
   129     0108                     	;# 
   130     0109                     	;# 
   131     010C                     	;# 
   132     010C                     	;# 
   133     010D                     	;# 
   134     010E                     	;# 
   135     010F                     	;# 
   136     0185                     	;# 
   137     0187                     	;# 
   138     0188                     	;# 
   139     0189                     	;# 
   140     018C                     	;# 
   141     018D                     	;# 
   142     0000                     	;# 
   143     0001                     	;# 
   144     0002                     	;# 
   145     0003                     	;# 
   146     0004                     	;# 
   147     0005                     	;# 
   148     0006                     	;# 
   149     0007                     	;# 
   150     0008                     	;# 
   151     0009                     	;# 
   152     000A                     	;# 
   153     000B                     	;# 
   154     000C                     	;# 
   155     000D                     	;# 
   156     000E                     	;# 
   157     000E                     	;# 
   158     000F                     	;# 
   159     0010                     	;# 
   160     0011                     	;# 
   161     0012                     	;# 
   162     0013                     	;# 
   163     0014                     	;# 
   164     0015                     	;# 
   165     0015                     	;# 
   166     0016                     	;# 
   167     0017                     	;# 
   168     0018                     	;# 
   169     0019                     	;# 
   170     001A                     	;# 
   171     001B                     	;# 
   172     001B                     	;# 
   173     001C                     	;# 
   174     001D                     	;# 
   175     001E                     	;# 
   176     001F                     	;# 
   177     0081                     	;# 
   178     0085                     	;# 
   179     0086                     	;# 
   180     0087                     	;# 
   181     0088                     	;# 
   182     0089                     	;# 
   183     008C                     	;# 
   184     008D                     	;# 
   185     008E                     	;# 
   186     008F                     	;# 
   187     0090                     	;# 
   188     0091                     	;# 
   189     0092                     	;# 
   190     0093                     	;# 
   191     0093                     	;# 
   192     0093                     	;# 
   193     0094                     	;# 
   194     0095                     	;# 
   195     0096                     	;# 
   196     0097                     	;# 
   197     0098                     	;# 
   198     0099                     	;# 
   199     009A                     	;# 
   200     009B                     	;# 
   201     009C                     	;# 
   202     009D                     	;# 
   203     009E                     	;# 
   204     009F                     	;# 
   205     0105                     	;# 
   206     0107                     	;# 
   207     0108                     	;# 
   208     0109                     	;# 
   209     010C                     	;# 
   210     010C                     	;# 
   211     010D                     	;# 
   212     010E                     	;# 
   213     010F                     	;# 
   214     0185                     	;# 
   215     0187                     	;# 
   216     0188                     	;# 
   217     0189                     	;# 
   218     018C                     	;# 
   219     018D                     	;# 
   220     0000                     	;# 
   221     0001                     	;# 
   222     0002                     	;# 
   223     0003                     	;# 
   224     0004                     	;# 
   225     0005                     	;# 
   226     0006                     	;# 
   227     0007                     	;# 
   228     0008                     	;# 
   229     0009                     	;# 
   230     000A                     	;# 
   231     000B                     	;# 
   232     000C                     	;# 
   233     000D                     	;# 
   234     000E                     	;# 
   235     000E                     	;# 
   236     000F                     	;# 
   237     0010                     	;# 
   238     0011                     	;# 
   239     0012                     	;# 
   240     0013                     	;# 
   241     0014                     	;# 
   242     0015                     	;# 
   243     0015                     	;# 
   244     0016                     	;# 
   245     0017                     	;# 
   246     0018                     	;# 
   247     0019                     	;# 
   248     001A                     	;# 
   249     001B                     	;# 
   250     001B                     	;# 
   251     001C                     	;# 
   252     001D                     	;# 
   253     001E                     	;# 
   254     001F                     	;# 
   255     0081                     	;# 
   256     0085                     	;# 
   257     0086                     	;# 
   258     0087                     	;# 
   259     0088                     	;# 
   260     0089                     	;# 
   261     008C                     	;# 
   262     008D                     	;# 
   263     008E                     	;# 
   264     008F                     	;# 
   265     0090                     	;# 
   266     0091                     	;# 
   267     0092                     	;# 
   268     0093                     	;# 
   269     0093                     	;# 
   270     0093                     	;# 
   271     0094                     	;# 
   272     0095                     	;# 
   273     0096                     	;# 
   274     0097                     	;# 
   275     0098                     	;# 
   276     0099                     	;# 
   277     009A                     	;# 
   278     009B                     	;# 
   279     009C                     	;# 
   280     009D                     	;# 
   281     009E                     	;# 
   282     009F                     	;# 
   283     0105                     	;# 
   284     0107                     	;# 
   285     0108                     	;# 
   286     0109                     	;# 
   287     010C                     	;# 
   288     010C                     	;# 
   289     010D                     	;# 
   290     010E                     	;# 
   291     010F                     	;# 
   292     0185                     	;# 
   293     0187                     	;# 
   294     0188                     	;# 
   295     0189                     	;# 
   296     018C                     	;# 
   297     018D                     	;# 
   298     0012                     _T2CON	set	18
   299     001B                     _CCPR2L	set	27
   300     001D                     _CCP2CON	set	29
   301     0015                     _CCPR1L	set	21
   302     0017                     _CCP1CON	set	23
   303     0008                     _PORTD	set	8
   304     0007                     _PORTC	set	7
   305     0006                     _PORTB	set	6
   306     0005                     _PORTA	set	5
   307     000C                     _PIR1bits	set	12
   308     001E                     _ADRESH	set	30
   309     001F                     _ADCON0bits	set	31
   310     000B                     _INTCONbits	set	11
   311     0001                     _TMR0	set	1
   312     0061                     _TMR2IF	set	97
   313     0066                     _ADIF	set	102
   314     005A                     _T0IF	set	90
   315     0092                     _PR2	set	146
   316     009F                     _ADCON1bits	set	159
   317     008C                     _PIE1bits	set	140
   318     0081                     _OPTION_REGbits	set	129
   319     008F                     _OSCCONbits	set	143
   320     0088                     _TRISD	set	136
   321     0087                     _TRISC	set	135
   322     0086                     _TRISB	set	134
   323     0085                     _TRISA	set	133
   324     0188                     _ANSEL	set	392
   325     0189                     _ANSELH	set	393
   326                           
   327                           	psect	cinit
   328     000F                     start_initialization:	
   329                           ; #config settings
   330                           
   331     000F                     __initialization:
   332                           
   333                           ; Clear objects allocated to COMMON
   334     000F  01F6               	clrf	__pbssCOMMON& (0+127)
   335     0010  01F7               	clrf	(__pbssCOMMON+1)& (0+127)
   336     0011  01F8               	clrf	(__pbssCOMMON+2)& (0+127)
   337     0012  01F9               	clrf	(__pbssCOMMON+3)& (0+127)
   338                           
   339                           ; Clear objects allocated to BANK0
   340     0013  1283               	bcf	3,5	;RP0=0, select bank0
   341     0014  1303               	bcf	3,6	;RP1=0, select bank0
   342     0015  01ED               	clrf	__pbssBANK0& (0+127)
   343                           
   344                           ; Clear objects allocated to BANK1
   345     0016  1683               	bsf	3,5	;RP0=1, select bank1
   346     0017  1303               	bcf	3,6	;RP1=0, select bank1
   347     0018  01A0               	clrf	__pbssBANK1& (0+127)
   348     0019  01A1               	clrf	(__pbssBANK1+1)& (0+127)
   349     001A  01A2               	clrf	(__pbssBANK1+2)& (0+127)
   350     001B  01A3               	clrf	(__pbssBANK1+3)& (0+127)
   351     001C  01A4               	clrf	(__pbssBANK1+4)& (0+127)
   352     001D  01A5               	clrf	(__pbssBANK1+5)& (0+127)
   353     001E  01A6               	clrf	(__pbssBANK1+6)& (0+127)
   354     001F  01A7               	clrf	(__pbssBANK1+7)& (0+127)
   355     0020                     end_of_initialization:	
   356                           ;End of C runtime variable initialization code
   357                           
   358     0020                     __end_of__initialization:
   359     0020  0183               	clrf	3
   360     0021  120A  118A  2D3C   	ljmp	_main	;jump to C main() function
   361                           
   362                           	psect	bssCOMMON
   363     0076                     __pbssCOMMON:
   364     0076                     _adc1:
   365     0076                     	ds	2
   366     0078                     _adc0:
   367     0078                     	ds	2
   368                           
   369                           	psect	bssBANK0
   370     006D                     __pbssBANK0:
   371     006D                     _ondaPWM:
   372     006D                     	ds	1
   373                           
   374                           	psect	bssBANK1
   375     00A0                     __pbssBANK1:
   376     00A0                     _valor_mapeado2:
   377     00A0                     	ds	2
   378     00A2                     _valor_mapeado1:
   379     00A2                     	ds	2
   380     00A4                     _valor_mapeado0:
   381     00A4                     	ds	2
   382     00A6                     _adc2:
   383     00A6                     	ds	2
   384                           
   385                           	psect	cstackBANK1
   386     00A8                     __pcstackBANK1:
   387     00A8                     _PWM_config$933:
   388                           
   389                           ; 4 bytes @ 0x0
   390     00A8                     	ds	4
   391     00AC                     PWM_config@valPR2:
   392                           
   393                           ; 2 bytes @ 0x4
   394     00AC                     	ds	2
   395                           
   396                           	psect	cstackCOMMON
   397     0070                     __pcstackCOMMON:
   398     0070                     ?_setup:
   399     0070                     ?_isr:	
   400                           ; 1 bytes @ 0x0
   401                           
   402     0070                     ??_isr:	
   403                           ; 1 bytes @ 0x0
   404                           
   405     0070                     ?_main:	
   406                           ; 1 bytes @ 0x0
   407                           
   408                           
   409                           ; 1 bytes @ 0x0
   410     0070                     	ds	4
   411     0074                     ??_setup:
   412     0074                     ??_PWM_duty:	
   413                           ; 1 bytes @ 0x4
   414                           
   415     0074                     ??_PWM_manual:	
   416                           ; 1 bytes @ 0x4
   417                           
   418     0074                     ??___wmul:	
   419                           ; 1 bytes @ 0x4
   420                           
   421     0074                     ?__Umul8_16:	
   422                           ; 1 bytes @ 0x4
   423                           
   424     0074                     __Umul8_16@multiplicand:	
   425                           ; 2 bytes @ 0x4
   426                           
   427     0074                     ___wmul@product:	
   428                           ; 1 bytes @ 0x4
   429                           
   430                           
   431                           ; 2 bytes @ 0x4
   432     0074                     	ds	2
   433     0076                     ??_PWM_config:
   434     0076                     ??_map:	
   435                           ; 1 bytes @ 0x6
   436                           
   437                           
   438                           	psect	cstackBANK0
   439     0020                     __pcstackBANK0:	
   440                           ; 1 bytes @ 0x6
   441                           
   442     0020                     ?_PWM_duty:
   443     0020                     ?_PWM_manual:	
   444                           ; 1 bytes @ 0x0
   445                           
   446     0020                     ??__Umul8_16:	
   447                           ; 1 bytes @ 0x0
   448                           
   449     0020                     ?___wmul:	
   450                           ; 1 bytes @ 0x0
   451                           
   452     0020                     PWM_duty@canal:	
   453                           ; 2 bytes @ 0x0
   454                           
   455     0020                     PWM_manual@ondaPWM:	
   456                           ; 2 bytes @ 0x0
   457                           
   458     0020                     ___wmul@multiplier:	
   459                           ; 2 bytes @ 0x0
   460                           
   461                           
   462                           ; 2 bytes @ 0x0
   463     0020                     	ds	2
   464     0022                     PWM_duty@DutyCycle:
   465     0022                     PWM_manual@valor_comparador:	
   466                           ; 2 bytes @ 0x2
   467                           
   468     0022                     ___wmul@multiplicand:	
   469                           ; 2 bytes @ 0x2
   470                           
   471     0022                     __Umul8_16@product:	
   472                           ; 2 bytes @ 0x2
   473                           
   474                           
   475                           ; 2 bytes @ 0x2
   476     0022                     	ds	2
   477     0024                     ?___lwdiv:
   478     0024                     PWM_manual@pin:	
   479                           ; 2 bytes @ 0x4
   480                           
   481     0024                     ___lwdiv@divisor:	
   482                           ; 2 bytes @ 0x4
   483                           
   484     0024                     __Umul8_16@word_mpld:	
   485                           ; 2 bytes @ 0x4
   486                           
   487                           
   488                           ; 2 bytes @ 0x4
   489     0024                     	ds	2
   490     0026                     __Umul8_16@multiplier:
   491     0026                     ___lwdiv@dividend:	
   492                           ; 1 bytes @ 0x6
   493                           
   494                           
   495                           ; 2 bytes @ 0x6
   496     0026                     	ds	1
   497     0027                     ?___fldiv:
   498     0027                     ___fldiv@a:	
   499                           ; 4 bytes @ 0x7
   500                           
   501                           
   502                           ; 4 bytes @ 0x7
   503     0027                     	ds	1
   504     0028                     ??___lwdiv:
   505                           
   506                           ; 1 bytes @ 0x8
   507     0028                     	ds	1
   508     0029                     ___lwdiv@quotient:
   509                           
   510                           ; 2 bytes @ 0x9
   511     0029                     	ds	2
   512     002B                     ___lwdiv@counter:
   513     002B                     ___fldiv@b:	
   514                           ; 1 bytes @ 0xB
   515                           
   516                           
   517                           ; 4 bytes @ 0xB
   518     002B                     	ds	1
   519     002C                     ?_map:
   520     002C                     map@valor:	
   521                           ; 2 bytes @ 0xC
   522                           
   523                           
   524                           ; 2 bytes @ 0xC
   525     002C                     	ds	2
   526     002E                     map@rango_min:
   527                           
   528                           ; 2 bytes @ 0xE
   529     002E                     	ds	1
   530     002F                     ??___fldiv:
   531                           
   532                           ; 1 bytes @ 0xF
   533     002F                     	ds	1
   534     0030                     map@rango_max:
   535                           
   536                           ; 2 bytes @ 0x10
   537     0030                     	ds	2
   538     0032                     map@nuevo_min:
   539                           
   540                           ; 2 bytes @ 0x12
   541     0032                     	ds	2
   542     0034                     map@nuevo_max:
   543     0034                     ___fldiv@rem:	
   544                           ; 2 bytes @ 0x14
   545                           
   546                           
   547                           ; 4 bytes @ 0x14
   548     0034                     	ds	2
   549     0036                     map@nuevo_valor:
   550                           
   551                           ; 2 bytes @ 0x16
   552     0036                     	ds	2
   553     0038                     ___fldiv@sign:
   554                           
   555                           ; 1 bytes @ 0x18
   556     0038                     	ds	1
   557     0039                     ___fldiv@new_exp:
   558                           
   559                           ; 2 bytes @ 0x19
   560     0039                     	ds	2
   561     003B                     ___fldiv@grs:
   562                           
   563                           ; 4 bytes @ 0x1B
   564     003B                     	ds	4
   565     003F                     ___fldiv@bexp:
   566                           
   567                           ; 1 bytes @ 0x1F
   568     003F                     	ds	1
   569     0040                     ___fldiv@aexp:
   570                           
   571                           ; 1 bytes @ 0x20
   572     0040                     	ds	1
   573     0041                     ?___flmul:
   574     0041                     ___flmul@b:	
   575                           ; 4 bytes @ 0x21
   576                           
   577                           
   578                           ; 4 bytes @ 0x21
   579     0041                     	ds	4
   580     0045                     ___flmul@a:
   581                           
   582                           ; 4 bytes @ 0x25
   583     0045                     	ds	4
   584     0049                     ??___flmul:
   585                           
   586                           ; 1 bytes @ 0x29
   587     0049                     	ds	5
   588     004E                     ___flmul@sign:
   589                           
   590                           ; 1 bytes @ 0x2E
   591     004E                     	ds	1
   592     004F                     ___flmul@aexp:
   593                           
   594                           ; 1 bytes @ 0x2F
   595     004F                     	ds	1
   596     0050                     ___flmul@grs:
   597                           
   598                           ; 4 bytes @ 0x30
   599     0050                     	ds	4
   600     0054                     ___flmul@bexp:
   601                           
   602                           ; 1 bytes @ 0x34
   603     0054                     	ds	1
   604     0055                     ___flmul@prod:
   605                           
   606                           ; 4 bytes @ 0x35
   607     0055                     	ds	4
   608     0059                     ___flmul@temp:
   609                           
   610                           ; 2 bytes @ 0x39
   611     0059                     	ds	2
   612     005B                     ?___fltol:
   613     005B                     ___fltol@f1:	
   614                           ; 4 bytes @ 0x3B
   615                           
   616                           
   617                           ; 4 bytes @ 0x3B
   618     005B                     	ds	4
   619     005F                     ??___fltol:
   620                           
   621                           ; 1 bytes @ 0x3F
   622     005F                     	ds	4
   623     0063                     ___fltol@sign1:
   624                           
   625                           ; 1 bytes @ 0x43
   626     0063                     	ds	1
   627     0064                     ___fltol@exp1:
   628                           
   629                           ; 1 bytes @ 0x44
   630     0064                     	ds	1
   631     0065                     ?_PWM_config:
   632     0065                     PWM_config@canal:	
   633                           ; 1 bytes @ 0x45
   634                           
   635                           
   636                           ; 2 bytes @ 0x45
   637     0065                     	ds	2
   638     0067                     PWM_config@periodo_ms:
   639                           
   640                           ; 4 bytes @ 0x47
   641     0067                     	ds	4
   642     006B                     ??_main:
   643                           
   644                           ; 1 bytes @ 0x4B
   645     006B                     	ds	2
   646                           
   647                           	psect	maintext
   648     053C                     __pmaintext:	
   649 ;;
   650 ;;Main: autosize = 0, tempsize = 2, incstack = 0, save=0
   651 ;;
   652 ;; *************** function _main *****************
   653 ;; Defined at:
   654 ;;		line 82 in file "Postlab_07.c"
   655 ;; Parameters:    Size  Location     Type
   656 ;;		None
   657 ;; Auto vars:     Size  Location     Type
   658 ;;		None
   659 ;; Return value:  Size  Location     Type
   660 ;;                  1    wreg      void 
   661 ;; Registers used:
   662 ;;		wreg, status,2, status,0, btemp+1, pclath, cstack
   663 ;; Tracked objects:
   664 ;;		On entry : B00/0
   665 ;;		On exit  : 0/0
   666 ;;		Unchanged: 0/0
   667 ;; Data sizes:     COMMON   BANK0   BANK1   BANK3   BANK2
   668 ;;      Params:         0       0       0       0       0
   669 ;;      Locals:         0       0       0       0       0
   670 ;;      Temps:          0       2       0       0       0
   671 ;;      Totals:         0       2       0       0       0
   672 ;;Total ram usage:        2 bytes
   673 ;; Hardware stack levels required when called: 4
   674 ;; This function calls:
   675 ;;		_PWM_config
   676 ;;		_PWM_duty
   677 ;;		_PWM_manual
   678 ;;		_map
   679 ;;		_setup
   680 ;; This function is called by:
   681 ;;		Startup code after reset
   682 ;; This function uses a non-reentrant model
   683 ;;
   684                           
   685     053C                     _main:	
   686                           ;psect for function _main
   687                           
   688     053C                     l2155:	
   689                           ;incstack = 0
   690                           ; Regs used in _main: [wreg+status,2+status,0+btemp+1+pclath+cstack]
   691                           
   692                           
   693                           ;Postlab_07.c: 84:     setup();
   694     053C  120A  118A  27C1  120A  118A  	fcall	_setup
   695     0541                     l2157:
   696                           
   697                           ;Postlab_07.c: 85:     PWM_config(1, 20);
   698     0541  3001               	movlw	1
   699     0542  1283               	bcf	3,5	;RP0=0, select bank0
   700     0543  1303               	bcf	3,6	;RP1=0, select bank0
   701     0544  00E5               	movwf	PWM_config@canal
   702     0545  3000               	movlw	0
   703     0546  00E6               	movwf	PWM_config@canal+1
   704     0547  3041               	movlw	65
   705     0548  00EA               	movwf	PWM_config@periodo_ms+3
   706     0549  30A0               	movlw	160
   707     054A  00E9               	movwf	PWM_config@periodo_ms+2
   708     054B  3000               	movlw	0
   709     054C  00E8               	movwf	PWM_config@periodo_ms+1
   710     054D  3000               	movlw	0
   711     054E  00E7               	movwf	PWM_config@periodo_ms
   712     054F  120A  118A  2634  120A  118A  	fcall	_PWM_config
   713     0554                     l2159:
   714                           
   715                           ;Postlab_07.c: 86:     PWM_config(2, 20);
   716     0554  3002               	movlw	2
   717     0555  1283               	bcf	3,5	;RP0=0, select bank0
   718     0556  1303               	bcf	3,6	;RP1=0, select bank0
   719     0557  00E5               	movwf	PWM_config@canal
   720     0558  3000               	movlw	0
   721     0559  00E6               	movwf	PWM_config@canal+1
   722     055A  3041               	movlw	65
   723     055B  00EA               	movwf	PWM_config@periodo_ms+3
   724     055C  30A0               	movlw	160
   725     055D  00E9               	movwf	PWM_config@periodo_ms+2
   726     055E  3000               	movlw	0
   727     055F  00E8               	movwf	PWM_config@periodo_ms+1
   728     0560  3000               	movlw	0
   729     0561  00E7               	movwf	PWM_config@periodo_ms
   730     0562  120A  118A  2634  120A  118A  	fcall	_PWM_config
   731     0567                     l2161:
   732                           
   733                           ;Postlab_07.c: 88:     {;Postlab_07.c: 89:         ADCON0bits.GO = 1;
   734     0567  1283               	bcf	3,5	;RP0=0, select bank0
   735     0568  1303               	bcf	3,6	;RP1=0, select bank0
   736     0569  149F               	bsf	31,1	;volatile
   737     056A                     l86:	
   738                           ;Postlab_07.c: 90:         while (ADIF == 0);
   739                           
   740     056A  1F0C               	btfss	12,6	;volatile
   741     056B  2D6D               	goto	u3001
   742     056C  2D6E               	goto	u3000
   743     056D                     u3001:
   744     056D  2D6A               	goto	l86
   745     056E                     u3000:
   746     056E                     l88:
   747     056E                     l2163:	
   748                           ;Postlab_07.c: 91:         _delay((unsigned long)((2)*(500000/4000000.0)));
   749                           
   750                           
   751                           ;Postlab_07.c: 92:         valor_mapeado0 = map(adc0,0,255,30,65);
   752     056E  0879               	movf	_adc0+1,w
   753     056F  1283               	bcf	3,5	;RP0=0, select bank0
   754     0570  1303               	bcf	3,6	;RP1=0, select bank0
   755     0571  00AD               	movwf	map@valor+1
   756     0572  0878               	movf	_adc0,w
   757     0573  00AC               	movwf	map@valor
   758     0574  3000               	movlw	0
   759     0575  00AE               	movwf	map@rango_min
   760     0576  00AF               	movwf	map@rango_min+1
   761     0577  30FF               	movlw	255
   762     0578  00B0               	movwf	map@rango_max
   763     0579  3000               	movlw	0
   764     057A  00B1               	movwf	map@rango_max+1
   765     057B  301E               	movlw	30
   766     057C  00B2               	movwf	map@nuevo_min
   767     057D  3000               	movlw	0
   768     057E  00B3               	movwf	map@nuevo_min+1
   769     057F  3041               	movlw	65
   770     0580  00B4               	movwf	map@nuevo_max
   771     0581  3000               	movlw	0
   772     0582  00B5               	movwf	map@nuevo_max+1
   773     0583  120A  158A  2738  120A  118A  	fcall	_map
   774     0588  1283               	bcf	3,5	;RP0=0, select bank0
   775     0589  1303               	bcf	3,6	;RP1=0, select bank0
   776     058A  082D               	movf	?_map+1,w
   777     058B  1683               	bsf	3,5	;RP0=1, select bank1
   778     058C  1303               	bcf	3,6	;RP1=0, select bank1
   779     058D  00A5               	movwf	(_valor_mapeado0+1)^(0+128)
   780     058E  1283               	bcf	3,5	;RP0=0, select bank0
   781     058F  1303               	bcf	3,6	;RP1=0, select bank0
   782     0590  082C               	movf	?_map,w
   783     0591  1683               	bsf	3,5	;RP0=1, select bank1
   784     0592  1303               	bcf	3,6	;RP1=0, select bank1
   785     0593  00A4               	movwf	_valor_mapeado0^(0+128)
   786                           
   787                           ;Postlab_07.c: 93:         valor_mapeado1 = map(adc1,0,255,30,65);
   788     0594  0877               	movf	_adc1+1,w
   789     0595  1283               	bcf	3,5	;RP0=0, select bank0
   790     0596  1303               	bcf	3,6	;RP1=0, select bank0
   791     0597  00AD               	movwf	map@valor+1
   792     0598  0876               	movf	_adc1,w
   793     0599  00AC               	movwf	map@valor
   794     059A  3000               	movlw	0
   795     059B  00AE               	movwf	map@rango_min
   796     059C  00AF               	movwf	map@rango_min+1
   797     059D  30FF               	movlw	255
   798     059E  00B0               	movwf	map@rango_max
   799     059F  3000               	movlw	0
   800     05A0  00B1               	movwf	map@rango_max+1
   801     05A1  301E               	movlw	30
   802     05A2  00B2               	movwf	map@nuevo_min
   803     05A3  3000               	movlw	0
   804     05A4  00B3               	movwf	map@nuevo_min+1
   805     05A5  3041               	movlw	65
   806     05A6  00B4               	movwf	map@nuevo_max
   807     05A7  3000               	movlw	0
   808     05A8  00B5               	movwf	map@nuevo_max+1
   809     05A9  120A  158A  2738  120A  118A  	fcall	_map
   810     05AE  1283               	bcf	3,5	;RP0=0, select bank0
   811     05AF  1303               	bcf	3,6	;RP1=0, select bank0
   812     05B0  082D               	movf	?_map+1,w
   813     05B1  1683               	bsf	3,5	;RP0=1, select bank1
   814     05B2  1303               	bcf	3,6	;RP1=0, select bank1
   815     05B3  00A3               	movwf	(_valor_mapeado1+1)^(0+128)
   816     05B4  1283               	bcf	3,5	;RP0=0, select bank0
   817     05B5  1303               	bcf	3,6	;RP1=0, select bank0
   818     05B6  082C               	movf	?_map,w
   819     05B7  1683               	bsf	3,5	;RP0=1, select bank1
   820     05B8  1303               	bcf	3,6	;RP1=0, select bank1
   821     05B9  00A2               	movwf	_valor_mapeado1^(0+128)
   822                           
   823                           ;Postlab_07.c: 94:         valor_mapeado2 = map(adc2,4,255,0,255);
   824     05BA  0827               	movf	(_adc2+1)^(0+128),w
   825     05BB  1283               	bcf	3,5	;RP0=0, select bank0
   826     05BC  1303               	bcf	3,6	;RP1=0, select bank0
   827     05BD  00AD               	movwf	map@valor+1
   828     05BE  1683               	bsf	3,5	;RP0=1, select bank1
   829     05BF  1303               	bcf	3,6	;RP1=0, select bank1
   830     05C0  0826               	movf	_adc2^(0+128),w
   831     05C1  1283               	bcf	3,5	;RP0=0, select bank0
   832     05C2  1303               	bcf	3,6	;RP1=0, select bank0
   833     05C3  00AC               	movwf	map@valor
   834     05C4  3004               	movlw	4
   835     05C5  00AE               	movwf	map@rango_min
   836     05C6  3000               	movlw	0
   837     05C7  00AF               	movwf	map@rango_min+1
   838     05C8  30FF               	movlw	255
   839     05C9  00B0               	movwf	map@rango_max
   840     05CA  3000               	movlw	0
   841     05CB  00B1               	movwf	map@rango_max+1
   842     05CC  3000               	movlw	0
   843     05CD  00B2               	movwf	map@nuevo_min
   844     05CE  00B3               	movwf	map@nuevo_min+1
   845     05CF  30FF               	movlw	255
   846     05D0  00B4               	movwf	map@nuevo_max
   847     05D1  3000               	movlw	0
   848     05D2  00B5               	movwf	map@nuevo_max+1
   849     05D3  120A  158A  2738  120A  118A  	fcall	_map
   850     05D8  1283               	bcf	3,5	;RP0=0, select bank0
   851     05D9  1303               	bcf	3,6	;RP1=0, select bank0
   852     05DA  082D               	movf	?_map+1,w
   853     05DB  1683               	bsf	3,5	;RP0=1, select bank1
   854     05DC  1303               	bcf	3,6	;RP1=0, select bank1
   855     05DD  00A1               	movwf	(_valor_mapeado2+1)^(0+128)
   856     05DE  1283               	bcf	3,5	;RP0=0, select bank0
   857     05DF  1303               	bcf	3,6	;RP1=0, select bank0
   858     05E0  082C               	movf	?_map,w
   859     05E1  1683               	bsf	3,5	;RP0=1, select bank1
   860     05E2  1303               	bcf	3,6	;RP1=0, select bank1
   861     05E3  00A0               	movwf	_valor_mapeado2^(0+128)
   862                           
   863                           ;Postlab_07.c: 95:         PWM_duty(2,valor_mapeado0);
   864     05E4  3002               	movlw	2
   865     05E5  1283               	bcf	3,5	;RP0=0, select bank0
   866     05E6  1303               	bcf	3,6	;RP1=0, select bank0
   867     05E7  00A0               	movwf	PWM_duty@canal
   868     05E8  3000               	movlw	0
   869     05E9  00A1               	movwf	PWM_duty@canal+1
   870     05EA  1683               	bsf	3,5	;RP0=1, select bank1
   871     05EB  1303               	bcf	3,6	;RP1=0, select bank1
   872     05EC  0825               	movf	(_valor_mapeado0+1)^(0+128),w
   873     05ED  1283               	bcf	3,5	;RP0=0, select bank0
   874     05EE  1303               	bcf	3,6	;RP1=0, select bank0
   875     05EF  00A3               	movwf	PWM_duty@DutyCycle+1
   876     05F0  1683               	bsf	3,5	;RP0=1, select bank1
   877     05F1  1303               	bcf	3,6	;RP1=0, select bank1
   878     05F2  0824               	movf	_valor_mapeado0^(0+128),w
   879     05F3  1283               	bcf	3,5	;RP0=0, select bank0
   880     05F4  1303               	bcf	3,6	;RP1=0, select bank0
   881     05F5  00A2               	movwf	PWM_duty@DutyCycle
   882     05F6  120A  158A  27B7  120A  118A  	fcall	_PWM_duty
   883                           
   884                           ;Postlab_07.c: 96:         PWM_duty(1,valor_mapeado1);
   885     05FB  3001               	movlw	1
   886     05FC  1283               	bcf	3,5	;RP0=0, select bank0
   887     05FD  1303               	bcf	3,6	;RP1=0, select bank0
   888     05FE  00A0               	movwf	PWM_duty@canal
   889     05FF  3000               	movlw	0
   890     0600  00A1               	movwf	PWM_duty@canal+1
   891     0601  1683               	bsf	3,5	;RP0=1, select bank1
   892     0602  1303               	bcf	3,6	;RP1=0, select bank1
   893     0603  0823               	movf	(_valor_mapeado1+1)^(0+128),w
   894     0604  1283               	bcf	3,5	;RP0=0, select bank0
   895     0605  1303               	bcf	3,6	;RP1=0, select bank0
   896     0606  00A3               	movwf	PWM_duty@DutyCycle+1
   897     0607  1683               	bsf	3,5	;RP0=1, select bank1
   898     0608  1303               	bcf	3,6	;RP1=0, select bank1
   899     0609  0822               	movf	_valor_mapeado1^(0+128),w
   900     060A  1283               	bcf	3,5	;RP0=0, select bank0
   901     060B  1303               	bcf	3,6	;RP1=0, select bank0
   902     060C  00A2               	movwf	PWM_duty@DutyCycle
   903     060D  120A  158A  27B7  120A  118A  	fcall	_PWM_duty
   904                           
   905                           ;Postlab_07.c: 97:         PWM_manual(ondaPWM, valor_mapeado2, 0b00000001);
   906     0612  1283               	bcf	3,5	;RP0=0, select bank0
   907     0613  1303               	bcf	3,6	;RP1=0, select bank0
   908     0614  086D               	movf	_ondaPWM,w
   909     0615  00EB               	movwf	??_main
   910     0616  01EC               	clrf	??_main+1
   911     0617  086B               	movf	??_main,w
   912     0618  00A0               	movwf	PWM_manual@ondaPWM
   913     0619  086C               	movf	??_main+1,w
   914     061A  00A1               	movwf	PWM_manual@ondaPWM+1
   915     061B  1683               	bsf	3,5	;RP0=1, select bank1
   916     061C  1303               	bcf	3,6	;RP1=0, select bank1
   917     061D  0821               	movf	(_valor_mapeado2+1)^(0+128),w
   918     061E  1283               	bcf	3,5	;RP0=0, select bank0
   919     061F  1303               	bcf	3,6	;RP1=0, select bank0
   920     0620  00A3               	movwf	PWM_manual@valor_comparador+1
   921     0621  1683               	bsf	3,5	;RP0=1, select bank1
   922     0622  1303               	bcf	3,6	;RP1=0, select bank1
   923     0623  0820               	movf	_valor_mapeado2^(0+128),w
   924     0624  1283               	bcf	3,5	;RP0=0, select bank0
   925     0625  1303               	bcf	3,6	;RP1=0, select bank0
   926     0626  00A2               	movwf	PWM_manual@valor_comparador
   927     0627  3001               	movlw	1
   928     0628  00A4               	movwf	PWM_manual@pin
   929     0629  3000               	movlw	0
   930     062A  00A5               	movwf	PWM_manual@pin+1
   931     062B  120A  158A  26CF  120A  118A  	fcall	_PWM_manual
   932     0630  2D67               	goto	l2161
   933     0631  120A  118A  280C   	ljmp	start
   934     0634                     __end_of_main:
   935                           
   936                           	psect	text1
   937     07C1                     __ptext1:	
   938 ;; *************** function _setup *****************
   939 ;; Defined at:
   940 ;;		line 107 in file "Postlab_07.c"
   941 ;; Parameters:    Size  Location     Type
   942 ;;		None
   943 ;; Auto vars:     Size  Location     Type
   944 ;;		None
   945 ;; Return value:  Size  Location     Type
   946 ;;                  1    wreg      void 
   947 ;; Registers used:
   948 ;;		wreg, status,2, status,0
   949 ;; Tracked objects:
   950 ;;		On entry : 0/0
   951 ;;		On exit  : 0/0
   952 ;;		Unchanged: 0/0
   953 ;; Data sizes:     COMMON   BANK0   BANK1   BANK3   BANK2
   954 ;;      Params:         0       0       0       0       0
   955 ;;      Locals:         0       0       0       0       0
   956 ;;      Temps:          0       0       0       0       0
   957 ;;      Totals:         0       0       0       0       0
   958 ;;Total ram usage:        0 bytes
   959 ;; Hardware stack levels used: 1
   960 ;; Hardware stack levels required when called: 1
   961 ;; This function calls:
   962 ;;		Nothing
   963 ;; This function is called by:
   964 ;;		_main
   965 ;; This function uses a non-reentrant model
   966 ;;
   967                           
   968     07C1                     _setup:	
   969                           ;psect for function _setup
   970                           
   971     07C1                     l1613:	
   972                           ;incstack = 0
   973                           ; Regs used in _setup: [wreg+status,2+status,0]
   974                           
   975                           
   976                           ;Postlab_07.c: 110:     ANSELH = 0;
   977     07C1  1683               	bsf	3,5	;RP0=1, select bank3
   978     07C2  1703               	bsf	3,6	;RP1=1, select bank3
   979     07C3  0189               	clrf	9	;volatile
   980     07C4                     l1615:
   981                           
   982                           ;Postlab_07.c: 111:     ANSEL = 0b111;
   983     07C4  3007               	movlw	7
   984     07C5  0088               	movwf	8	;volatile
   985     07C6                     l1617:
   986                           
   987                           ;Postlab_07.c: 113:     TRISA = 0b111;
   988     07C6  3007               	movlw	7
   989     07C7  1683               	bsf	3,5	;RP0=1, select bank1
   990     07C8  1303               	bcf	3,6	;RP1=0, select bank1
   991     07C9  0085               	movwf	5	;volatile
   992                           
   993                           ;Postlab_07.c: 114:     TRISB = 0;
   994     07CA  0186               	clrf	6	;volatile
   995                           
   996                           ;Postlab_07.c: 115:     TRISC = 0;
   997     07CB  0187               	clrf	7	;volatile
   998                           
   999                           ;Postlab_07.c: 116:     TRISD = 0;
  1000     07CC  0188               	clrf	8	;volatile
  1001                           
  1002                           ;Postlab_07.c: 118:     PORTA = 0;
  1003     07CD  1283               	bcf	3,5	;RP0=0, select bank0
  1004     07CE  1303               	bcf	3,6	;RP1=0, select bank0
  1005     07CF  0185               	clrf	5	;volatile
  1006                           
  1007                           ;Postlab_07.c: 119:     PORTB = 0;
  1008     07D0  0186               	clrf	6	;volatile
  1009                           
  1010                           ;Postlab_07.c: 120:     PORTC = 0;
  1011     07D1  0187               	clrf	7	;volatile
  1012                           
  1013                           ;Postlab_07.c: 121:     PORTD = 0;
  1014     07D2  0188               	clrf	8	;volatile
  1015     07D3                     l1619:
  1016                           
  1017                           ;Postlab_07.c: 124:     OSCCONbits.IRCF = 0b011;
  1018     07D3  1683               	bsf	3,5	;RP0=1, select bank1
  1019     07D4  1303               	bcf	3,6	;RP1=0, select bank1
  1020     07D5  080F               	movf	15,w	;volatile
  1021     07D6  398F               	andlw	-113
  1022     07D7  3830               	iorlw	48
  1023     07D8  008F               	movwf	15	;volatile
  1024     07D9                     l1621:
  1025                           
  1026                           ;Postlab_07.c: 125:     OSCCONbits.SCS = 1;
  1027     07D9  140F               	bsf	15,0	;volatile
  1028     07DA                     l1623:
  1029                           
  1030                           ;Postlab_07.c: 128:     OPTION_REGbits.T0CS = 0;
  1031     07DA  1281               	bcf	1,5	;volatile
  1032     07DB                     l1625:
  1033                           
  1034                           ;Postlab_07.c: 129:     OPTION_REGbits.PSA = 0;
  1035     07DB  1181               	bcf	1,3	;volatile
  1036     07DC                     l1627:
  1037                           
  1038                           ;Postlab_07.c: 130:     OPTION_REGbits.PS = 0b011;
  1039     07DC  0801               	movf	1,w	;volatile
  1040     07DD  39F8               	andlw	-8
  1041     07DE  3803               	iorlw	3
  1042     07DF  0081               	movwf	1	;volatile
  1043     07E0                     l1629:
  1044                           
  1045                           ;Postlab_07.c: 131:     TMR0 = 50;
  1046     07E0  3032               	movlw	50
  1047     07E1  1283               	bcf	3,5	;RP0=0, select bank0
  1048     07E2  1303               	bcf	3,6	;RP1=0, select bank0
  1049     07E3  0081               	movwf	1	;volatile
  1050     07E4                     l1631:
  1051                           
  1052                           ;Postlab_07.c: 134:     INTCONbits.T0IF = 0;
  1053     07E4  110B               	bcf	11,2	;volatile
  1054     07E5                     l1633:
  1055                           
  1056                           ;Postlab_07.c: 135:     INTCONbits.T0IE = 1;
  1057     07E5  168B               	bsf	11,5	;volatile
  1058     07E6                     l1635:
  1059                           
  1060                           ;Postlab_07.c: 137:     PIR1bits.ADIF = 0;
  1061     07E6  130C               	bcf	12,6	;volatile
  1062     07E7                     l1637:
  1063                           
  1064                           ;Postlab_07.c: 138:     PIE1bits.ADIE = 1;
  1065     07E7  1683               	bsf	3,5	;RP0=1, select bank1
  1066     07E8  1303               	bcf	3,6	;RP1=0, select bank1
  1067     07E9  170C               	bsf	12,6	;volatile
  1068     07EA                     l1639:
  1069                           
  1070                           ;Postlab_07.c: 139:     INTCONbits.GIE = 1;
  1071     07EA  178B               	bsf	11,7	;volatile
  1072     07EB                     l1641:
  1073                           
  1074                           ;Postlab_07.c: 142:     ADCON0bits.ADCS = 0b10;
  1075     07EB  1283               	bcf	3,5	;RP0=0, select bank0
  1076     07EC  1303               	bcf	3,6	;RP1=0, select bank0
  1077     07ED  081F               	movf	31,w	;volatile
  1078     07EE  393F               	andlw	-193
  1079     07EF  3880               	iorlw	128
  1080     07F0  009F               	movwf	31	;volatile
  1081     07F1                     l1643:
  1082                           
  1083                           ;Postlab_07.c: 143:     ADCON0bits.CHS = 0b0000;
  1084     07F1  30C3               	movlw	-61
  1085     07F2  059F               	andwf	31,f	;volatile
  1086     07F3                     l1645:
  1087                           
  1088                           ;Postlab_07.c: 144:     _delay((unsigned long)((50)*(500000/4000000.0)));
  1089     07F3  2FF4               	nop2	;2 cycle nop
  1090     07F4  2FF5               	nop2	;2 cycle nop
  1091     07F5  2FF6               	nop2	;2 cycle nop
  1092     07F6                     l1647:
  1093                           
  1094                           ;Postlab_07.c: 145:     ADCON1bits.ADFM = 0;
  1095     07F6  1683               	bsf	3,5	;RP0=1, select bank1
  1096     07F7  1303               	bcf	3,6	;RP1=0, select bank1
  1097     07F8  139F               	bcf	31,7	;volatile
  1098     07F9                     l1649:
  1099                           
  1100                           ;Postlab_07.c: 146:     ADCON1bits.VCFG0 = 0;
  1101     07F9  121F               	bcf	31,4	;volatile
  1102     07FA                     l1651:
  1103                           
  1104                           ;Postlab_07.c: 147:     ADCON1bits.VCFG1 = 0;
  1105     07FA  129F               	bcf	31,5	;volatile
  1106     07FB                     l1653:
  1107                           
  1108                           ;Postlab_07.c: 148:     ADCON0bits.ADON = 1;
  1109     07FB  1283               	bcf	3,5	;RP0=0, select bank0
  1110     07FC  1303               	bcf	3,6	;RP1=0, select bank0
  1111     07FD  141F               	bsf	31,0	;volatile
  1112     07FE                     l1655:
  1113                           
  1114                           ;Postlab_07.c: 149:     ADIF = 0;
  1115     07FE  130C               	bcf	12,6	;volatile
  1116     07FF                     l97:
  1117     07FF  0008               	return
  1118     0800                     __end_of_setup:
  1119                           
  1120                           	psect	text2
  1121     0F38                     __ptext2:	
  1122 ;; *************** function _map *****************
  1123 ;; Defined at:
  1124 ;;		line 102 in file "Postlab_07.c"
  1125 ;; Parameters:    Size  Location     Type
  1126 ;;  valor           2   12[BANK0 ] unsigned int 
  1127 ;;  rango_min       2   14[BANK0 ] unsigned int 
  1128 ;;  rango_max       2   16[BANK0 ] unsigned int 
  1129 ;;  nuevo_min       2   18[BANK0 ] unsigned int 
  1130 ;;  nuevo_max       2   20[BANK0 ] unsigned int 
  1131 ;; Auto vars:     Size  Location     Type
  1132 ;;  nuevo_valor     2   22[BANK0 ] unsigned int 
  1133 ;; Return value:  Size  Location     Type
  1134 ;;                  2   12[BANK0 ] unsigned int 
  1135 ;; Registers used:
  1136 ;;		wreg, status,2, status,0, pclath, cstack
  1137 ;; Tracked objects:
  1138 ;;		On entry : 0/0
  1139 ;;		On exit  : 0/0
  1140 ;;		Unchanged: 0/0
  1141 ;; Data sizes:     COMMON   BANK0   BANK1   BANK3   BANK2
  1142 ;;      Params:         0      10       0       0       0
  1143 ;;      Locals:         0       2       0       0       0
  1144 ;;      Temps:          0       0       0       0       0
  1145 ;;      Totals:         0      12       0       0       0
  1146 ;;Total ram usage:       12 bytes
  1147 ;; Hardware stack levels used: 1
  1148 ;; Hardware stack levels required when called: 2
  1149 ;; This function calls:
  1150 ;;		___lwdiv
  1151 ;;		___wmul
  1152 ;; This function is called by:
  1153 ;;		_main
  1154 ;; This function uses a non-reentrant model
  1155 ;;
  1156                           
  1157     0F38                     _map:	
  1158                           ;psect for function _map
  1159                           
  1160     0F38                     l2123:	
  1161                           ;incstack = 0
  1162                           ; Regs used in _map: [wreg+status,2+status,0+pclath+cstack]
  1163                           
  1164                           
  1165                           ;Postlab_07.c: 103:     uint16_t nuevo_valor = nuevo_min + (valor - rango_min)*(nuevo_ma
      +                          x - nuevo_min)/(rango_max - rango_min);
  1166     0F38  1283               	bcf	3,5	;RP0=0, select bank0
  1167     0F39  1303               	bcf	3,6	;RP1=0, select bank0
  1168     0F3A  082E               	movf	map@rango_min,w
  1169     0F3B  0230               	subwf	map@rango_max,w
  1170     0F3C  00A4               	movwf	___lwdiv@divisor
  1171     0F3D  082F               	movf	map@rango_min+1,w
  1172     0F3E  1C03               	skipc
  1173     0F3F  0A2F               	incf	map@rango_min+1,w
  1174     0F40  0231               	subwf	map@rango_max+1,w
  1175     0F41  00A5               	movwf	___lwdiv@divisor+1
  1176     0F42  082E               	movf	map@rango_min,w
  1177     0F43  022C               	subwf	map@valor,w
  1178     0F44  00A0               	movwf	___wmul@multiplier
  1179     0F45  082F               	movf	map@rango_min+1,w
  1180     0F46  1C03               	skipc
  1181     0F47  0A2F               	incf	map@rango_min+1,w
  1182     0F48  022D               	subwf	map@valor+1,w
  1183     0F49  00A1               	movwf	___wmul@multiplier+1
  1184     0F4A  0832               	movf	map@nuevo_min,w
  1185     0F4B  0234               	subwf	map@nuevo_max,w
  1186     0F4C  00A2               	movwf	___wmul@multiplicand
  1187     0F4D  0833               	movf	map@nuevo_min+1,w
  1188     0F4E  1C03               	skipc
  1189     0F4F  0A33               	incf	map@nuevo_min+1,w
  1190     0F50  0235               	subwf	map@nuevo_max+1,w
  1191     0F51  00A3               	movwf	___wmul@multiplicand+1
  1192     0F52  120A  158A  26E8  120A  158A  	fcall	___wmul
  1193     0F57  1283               	bcf	3,5	;RP0=0, select bank0
  1194     0F58  1303               	bcf	3,6	;RP1=0, select bank0
  1195     0F59  0821               	movf	?___wmul+1,w
  1196     0F5A  00A7               	movwf	___lwdiv@dividend+1
  1197     0F5B  0820               	movf	?___wmul,w
  1198     0F5C  00A6               	movwf	___lwdiv@dividend
  1199     0F5D  120A  158A  2771  120A  158A  	fcall	___lwdiv
  1200     0F62  1283               	bcf	3,5	;RP0=0, select bank0
  1201     0F63  1303               	bcf	3,6	;RP1=0, select bank0
  1202     0F64  0832               	movf	map@nuevo_min,w
  1203     0F65  0724               	addwf	?___lwdiv,w
  1204     0F66  00B6               	movwf	map@nuevo_valor
  1205     0F67  0833               	movf	map@nuevo_min+1,w
  1206     0F68  1803               	skipnc
  1207     0F69  0A33               	incf	map@nuevo_min+1,w
  1208     0F6A  0725               	addwf	?___lwdiv+1,w
  1209     0F6B  00B7               	movwf	map@nuevo_valor+1
  1210     0F6C                     l2125:
  1211                           
  1212                           ;Postlab_07.c: 104:     return nuevo_valor;
  1213     0F6C  0837               	movf	map@nuevo_valor+1,w
  1214     0F6D  00AD               	movwf	?_map+1
  1215     0F6E  0836               	movf	map@nuevo_valor,w
  1216     0F6F  00AC               	movwf	?_map
  1217     0F70                     l94:
  1218     0F70  0008               	return
  1219     0F71                     __end_of_map:
  1220                           
  1221                           	psect	text3
  1222     0EE8                     __ptext3:	
  1223 ;; *************** function ___wmul *****************
  1224 ;; Defined at:
  1225 ;;		line 15 in file "C:\Program Files\Microchip\xc8\v2.40\pic\sources\c90\common\Umul16.c"
  1226 ;; Parameters:    Size  Location     Type
  1227 ;;  multiplier      2    0[BANK0 ] unsigned int 
  1228 ;;  multiplicand    2    2[BANK0 ] unsigned int 
  1229 ;; Auto vars:     Size  Location     Type
  1230 ;;  product         2    4[COMMON] unsigned int 
  1231 ;; Return value:  Size  Location     Type
  1232 ;;                  2    0[BANK0 ] unsigned int 
  1233 ;; Registers used:
  1234 ;;		wreg, status,2, status,0
  1235 ;; Tracked objects:
  1236 ;;		On entry : 0/0
  1237 ;;		On exit  : 0/0
  1238 ;;		Unchanged: 0/0
  1239 ;; Data sizes:     COMMON   BANK0   BANK1   BANK3   BANK2
  1240 ;;      Params:         0       4       0       0       0
  1241 ;;      Locals:         2       0       0       0       0
  1242 ;;      Temps:          0       0       0       0       0
  1243 ;;      Totals:         2       4       0       0       0
  1244 ;;Total ram usage:        6 bytes
  1245 ;; Hardware stack levels used: 1
  1246 ;; Hardware stack levels required when called: 1
  1247 ;; This function calls:
  1248 ;;		Nothing
  1249 ;; This function is called by:
  1250 ;;		_map
  1251 ;; This function uses a non-reentrant model
  1252 ;;
  1253                           
  1254     0EE8                     ___wmul:	
  1255                           ;psect for function ___wmul
  1256                           
  1257     0EE8                     l1769:	
  1258                           ;incstack = 0
  1259                           ; Regs used in ___wmul: [wreg+status,2+status,0]
  1260                           
  1261     0EE8  01F4               	clrf	___wmul@product
  1262     0EE9  01F5               	clrf	___wmul@product+1
  1263     0EEA                     l1771:
  1264     0EEA  1283               	bcf	3,5	;RP0=0, select bank0
  1265     0EEB  1303               	bcf	3,6	;RP1=0, select bank0
  1266     0EEC  1C20               	btfss	___wmul@multiplier,0
  1267     0EED  2EEF               	goto	u2121
  1268     0EEE  2EF0               	goto	u2120
  1269     0EEF                     u2121:
  1270     0EEF  2EF6               	goto	l221
  1271     0EF0                     u2120:
  1272     0EF0                     l1773:
  1273     0EF0  0822               	movf	___wmul@multiplicand,w
  1274     0EF1  07F4               	addwf	___wmul@product,f
  1275     0EF2  1803               	skipnc
  1276     0EF3  0AF5               	incf	___wmul@product+1,f
  1277     0EF4  0823               	movf	___wmul@multiplicand+1,w
  1278     0EF5  07F5               	addwf	___wmul@product+1,f
  1279     0EF6                     l221:
  1280     0EF6  3001               	movlw	1
  1281     0EF7                     u2135:
  1282     0EF7  1003               	clrc
  1283     0EF8  0DA2               	rlf	___wmul@multiplicand,f
  1284     0EF9  0DA3               	rlf	___wmul@multiplicand+1,f
  1285     0EFA  3EFF               	addlw	-1
  1286     0EFB  1D03               	skipz
  1287     0EFC  2EF7               	goto	u2135
  1288     0EFD                     l1775:
  1289     0EFD  3001               	movlw	1
  1290     0EFE                     u2145:
  1291     0EFE  1003               	clrc
  1292     0EFF  0CA1               	rrf	___wmul@multiplier+1,f
  1293     0F00  0CA0               	rrf	___wmul@multiplier,f
  1294     0F01  3EFF               	addlw	-1
  1295     0F02  1D03               	skipz
  1296     0F03  2EFE               	goto	u2145
  1297     0F04                     l1777:
  1298     0F04  0820               	movf	___wmul@multiplier,w
  1299     0F05  0421               	iorwf	___wmul@multiplier+1,w
  1300     0F06  1D03               	btfss	3,2
  1301     0F07  2F09               	goto	u2151
  1302     0F08  2F0A               	goto	u2150
  1303     0F09                     u2151:
  1304     0F09  2EEA               	goto	l1771
  1305     0F0A                     u2150:
  1306     0F0A                     l1779:
  1307     0F0A  0875               	movf	___wmul@product+1,w
  1308     0F0B  00A1               	movwf	?___wmul+1
  1309     0F0C  0874               	movf	___wmul@product,w
  1310     0F0D  00A0               	movwf	?___wmul
  1311     0F0E                     l223:
  1312     0F0E  0008               	return
  1313     0F0F                     __end_of___wmul:
  1314                           
  1315                           	psect	text4
  1316     0F71                     __ptext4:	
  1317 ;; *************** function ___lwdiv *****************
  1318 ;; Defined at:
  1319 ;;		line 5 in file "C:\Program Files\Microchip\xc8\v2.40\pic\sources\c90\common\lwdiv.c"
  1320 ;; Parameters:    Size  Location     Type
  1321 ;;  divisor         2    4[BANK0 ] unsigned int 
  1322 ;;  dividend        2    6[BANK0 ] unsigned int 
  1323 ;; Auto vars:     Size  Location     Type
  1324 ;;  quotient        2    9[BANK0 ] unsigned int 
  1325 ;;  counter         1   11[BANK0 ] unsigned char 
  1326 ;; Return value:  Size  Location     Type
  1327 ;;                  2    4[BANK0 ] unsigned int 
  1328 ;; Registers used:
  1329 ;;		wreg, status,2, status,0
  1330 ;; Tracked objects:
  1331 ;;		On entry : 0/0
  1332 ;;		On exit  : 0/0
  1333 ;;		Unchanged: 0/0
  1334 ;; Data sizes:     COMMON   BANK0   BANK1   BANK3   BANK2
  1335 ;;      Params:         0       4       0       0       0
  1336 ;;      Locals:         0       3       0       0       0
  1337 ;;      Temps:          0       1       0       0       0
  1338 ;;      Totals:         0       8       0       0       0
  1339 ;;Total ram usage:        8 bytes
  1340 ;; Hardware stack levels used: 1
  1341 ;; Hardware stack levels required when called: 1
  1342 ;; This function calls:
  1343 ;;		Nothing
  1344 ;; This function is called by:
  1345 ;;		_map
  1346 ;; This function uses a non-reentrant model
  1347 ;;
  1348                           
  1349     0F71                     ___lwdiv:	
  1350                           ;psect for function ___lwdiv
  1351                           
  1352     0F71                     l1305:	
  1353                           ;incstack = 0
  1354                           ; Regs used in ___lwdiv: [wreg+status,2+status,0]
  1355                           
  1356     0F71  1283               	bcf	3,5	;RP0=0, select bank0
  1357     0F72  1303               	bcf	3,6	;RP1=0, select bank0
  1358     0F73  01A9               	clrf	___lwdiv@quotient
  1359     0F74  01AA               	clrf	___lwdiv@quotient+1
  1360     0F75                     l1307:
  1361     0F75  0824               	movf	___lwdiv@divisor,w
  1362     0F76  0425               	iorwf	___lwdiv@divisor+1,w
  1363     0F77  1903               	btfsc	3,2
  1364     0F78  2F7A               	goto	u1221
  1365     0F79  2F7B               	goto	u1220
  1366     0F7A                     u1221:
  1367     0F7A  2FB2               	goto	l1327
  1368     0F7B                     u1220:
  1369     0F7B                     l1309:
  1370     0F7B  01AB               	clrf	___lwdiv@counter
  1371     0F7C  0AAB               	incf	___lwdiv@counter,f
  1372     0F7D  2F89               	goto	l1315
  1373     0F7E                     l1311:
  1374     0F7E  3001               	movlw	1
  1375     0F7F                     u1235:
  1376     0F7F  1003               	clrc
  1377     0F80  0DA4               	rlf	___lwdiv@divisor,f
  1378     0F81  0DA5               	rlf	___lwdiv@divisor+1,f
  1379     0F82  3EFF               	addlw	-1
  1380     0F83  1D03               	skipz
  1381     0F84  2F7F               	goto	u1235
  1382     0F85                     l1313:
  1383     0F85  3001               	movlw	1
  1384     0F86  00A8               	movwf	??___lwdiv
  1385     0F87  0828               	movf	??___lwdiv,w
  1386     0F88  07AB               	addwf	___lwdiv@counter,f
  1387     0F89                     l1315:
  1388     0F89  1FA5               	btfss	___lwdiv@divisor+1,7
  1389     0F8A  2F8C               	goto	u1241
  1390     0F8B  2F8D               	goto	u1240
  1391     0F8C                     u1241:
  1392     0F8C  2F7E               	goto	l1311
  1393     0F8D                     u1240:
  1394     0F8D                     l1317:
  1395     0F8D  3001               	movlw	1
  1396     0F8E                     u1255:
  1397     0F8E  1003               	clrc
  1398     0F8F  0DA9               	rlf	___lwdiv@quotient,f
  1399     0F90  0DAA               	rlf	___lwdiv@quotient+1,f
  1400     0F91  3EFF               	addlw	-1
  1401     0F92  1D03               	skipz
  1402     0F93  2F8E               	goto	u1255
  1403     0F94  0825               	movf	___lwdiv@divisor+1,w
  1404     0F95  0227               	subwf	___lwdiv@dividend+1,w
  1405     0F96  1D03               	skipz
  1406     0F97  2F9A               	goto	u1265
  1407     0F98  0824               	movf	___lwdiv@divisor,w
  1408     0F99  0226               	subwf	___lwdiv@dividend,w
  1409     0F9A                     u1265:
  1410     0F9A  1C03               	skipc
  1411     0F9B  2F9D               	goto	u1261
  1412     0F9C  2F9E               	goto	u1260
  1413     0F9D                     u1261:
  1414     0F9D  2FA5               	goto	l1323
  1415     0F9E                     u1260:
  1416     0F9E                     l1319:
  1417     0F9E  0824               	movf	___lwdiv@divisor,w
  1418     0F9F  02A6               	subwf	___lwdiv@dividend,f
  1419     0FA0  0825               	movf	___lwdiv@divisor+1,w
  1420     0FA1  1C03               	skipc
  1421     0FA2  03A7               	decf	___lwdiv@dividend+1,f
  1422     0FA3  02A7               	subwf	___lwdiv@dividend+1,f
  1423     0FA4                     l1321:
  1424     0FA4  1429               	bsf	___lwdiv@quotient,0
  1425     0FA5                     l1323:
  1426     0FA5  3001               	movlw	1
  1427     0FA6                     u1275:
  1428     0FA6  1003               	clrc
  1429     0FA7  0CA5               	rrf	___lwdiv@divisor+1,f
  1430     0FA8  0CA4               	rrf	___lwdiv@divisor,f
  1431     0FA9  3EFF               	addlw	-1
  1432     0FAA  1D03               	skipz
  1433     0FAB  2FA6               	goto	u1275
  1434     0FAC                     l1325:
  1435     0FAC  3001               	movlw	1
  1436     0FAD  02AB               	subwf	___lwdiv@counter,f
  1437     0FAE  1D03               	btfss	3,2
  1438     0FAF  2FB1               	goto	u1281
  1439     0FB0  2FB2               	goto	u1280
  1440     0FB1                     u1281:
  1441     0FB1  2F8D               	goto	l1317
  1442     0FB2                     u1280:
  1443     0FB2                     l1327:
  1444     0FB2  082A               	movf	___lwdiv@quotient+1,w
  1445     0FB3  00A5               	movwf	?___lwdiv+1
  1446     0FB4  0829               	movf	___lwdiv@quotient,w
  1447     0FB5  00A4               	movwf	?___lwdiv
  1448     0FB6                     l493:
  1449     0FB6  0008               	return
  1450     0FB7                     __end_of___lwdiv:
  1451                           
  1452                           	psect	text5
  1453     0ECF                     __ptext5:	
  1454 ;; *************** function _PWM_manual *****************
  1455 ;; Defined at:
  1456 ;;		line 55 in file "PWM_Library.c"
  1457 ;; Parameters:    Size  Location     Type
  1458 ;;  ondaPWM         2    0[BANK0 ] int 
  1459 ;;  valor_compar    2    2[BANK0 ] int 
  1460 ;;  pin             2    4[BANK0 ] int 
  1461 ;; Auto vars:     Size  Location     Type
  1462 ;;		None
  1463 ;; Return value:  Size  Location     Type
  1464 ;;                  1    wreg      void 
  1465 ;; Registers used:
  1466 ;;		wreg, status,2
  1467 ;; Tracked objects:
  1468 ;;		On entry : 0/0
  1469 ;;		On exit  : 0/0
  1470 ;;		Unchanged: 0/0
  1471 ;; Data sizes:     COMMON   BANK0   BANK1   BANK3   BANK2
  1472 ;;      Params:         0       6       0       0       0
  1473 ;;      Locals:         0       0       0       0       0
  1474 ;;      Temps:          1       0       0       0       0
  1475 ;;      Totals:         1       6       0       0       0
  1476 ;;Total ram usage:        7 bytes
  1477 ;; Hardware stack levels used: 1
  1478 ;; Hardware stack levels required when called: 1
  1479 ;; This function calls:
  1480 ;;		Nothing
  1481 ;; This function is called by:
  1482 ;;		_main
  1483 ;; This function uses a non-reentrant model
  1484 ;;
  1485                           
  1486     0ECF                     _PWM_manual:	
  1487                           ;psect for function _PWM_manual
  1488                           
  1489     0ECF                     l2147:	
  1490                           ;incstack = 0
  1491                           ; Regs used in _PWM_manual: [wreg+status,2]
  1492                           
  1493                           
  1494                           ;PWM_Library.c: 56:     if (ondaPWM <valor_comparador){
  1495     0ECF  1283               	bcf	3,5	;RP0=0, select bank0
  1496     0ED0  1303               	bcf	3,6	;RP1=0, select bank0
  1497     0ED1  0821               	movf	PWM_manual@ondaPWM+1,w
  1498     0ED2  3A80               	xorlw	128
  1499     0ED3  00F4               	movwf	??_PWM_manual
  1500     0ED4  0823               	movf	PWM_manual@valor_comparador+1,w
  1501     0ED5  3A80               	xorlw	128
  1502     0ED6  0274               	subwf	??_PWM_manual,w
  1503     0ED7  1D03               	skipz
  1504     0ED8  2EDB               	goto	u2995
  1505     0ED9  0822               	movf	PWM_manual@valor_comparador,w
  1506     0EDA  0220               	subwf	PWM_manual@ondaPWM,w
  1507     0EDB                     u2995:
  1508     0EDB  1803               	skipnc
  1509     0EDC  2EDE               	goto	u2991
  1510     0EDD  2EDF               	goto	u2990
  1511     0EDE                     u2991:
  1512     0EDE  2EE4               	goto	l2151
  1513     0EDF                     u2990:
  1514     0EDF                     l2149:
  1515                           
  1516                           ;PWM_Library.c: 57:         PORTD = pin;
  1517     0EDF  1283               	bcf	3,5	;RP0=0, select bank0
  1518     0EE0  1303               	bcf	3,6	;RP1=0, select bank0
  1519     0EE1  0824               	movf	PWM_manual@pin,w
  1520     0EE2  0088               	movwf	8	;volatile
  1521                           
  1522                           ;PWM_Library.c: 58:     }
  1523     0EE3  2EE7               	goto	l135
  1524     0EE4                     l2151:
  1525                           
  1526                           ;PWM_Library.c: 60:         PORTD = 0b00000000;
  1527     0EE4  1283               	bcf	3,5	;RP0=0, select bank0
  1528     0EE5  1303               	bcf	3,6	;RP1=0, select bank0
  1529     0EE6  0188               	clrf	8	;volatile
  1530     0EE7                     l135:
  1531     0EE7  0008               	return
  1532     0EE8                     __end_of_PWM_manual:
  1533                           
  1534                           	psect	text6
  1535     0FB7                     __ptext6:	
  1536 ;; *************** function _PWM_duty *****************
  1537 ;; Defined at:
  1538 ;;		line 41 in file "PWM_Library.c"
  1539 ;; Parameters:    Size  Location     Type
  1540 ;;  canal           2    0[BANK0 ] int 
  1541 ;;  DutyCycle       2    2[BANK0 ] int 
  1542 ;; Auto vars:     Size  Location     Type
  1543 ;;		None
  1544 ;; Return value:  Size  Location     Type
  1545 ;;                  1    wreg      void 
  1546 ;; Registers used:
  1547 ;;		wreg, status,2, status,0
  1548 ;; Tracked objects:
  1549 ;;		On entry : 0/0
  1550 ;;		On exit  : 0/0
  1551 ;;		Unchanged: 0/0
  1552 ;; Data sizes:     COMMON   BANK0   BANK1   BANK3   BANK2
  1553 ;;      Params:         0       4       0       0       0
  1554 ;;      Locals:         0       0       0       0       0
  1555 ;;      Temps:          2       0       0       0       0
  1556 ;;      Totals:         2       4       0       0       0
  1557 ;;Total ram usage:        6 bytes
  1558 ;; Hardware stack levels used: 1
  1559 ;; Hardware stack levels required when called: 1
  1560 ;; This function calls:
  1561 ;;		Nothing
  1562 ;; This function is called by:
  1563 ;;		_main
  1564 ;; This function uses a non-reentrant model
  1565 ;;
  1566                           
  1567     0FB7                     _PWM_duty:	
  1568                           ;psect for function _PWM_duty
  1569                           
  1570     0FB7                     l2129:	
  1571                           ;incstack = 0
  1572                           ; Regs used in _PWM_duty: [wreg+status,2+status,0]
  1573                           
  1574                           
  1575                           ;PWM_Library.c: 42:     if (canal == 1){
  1576     0FB7  1283               	bcf	3,5	;RP0=0, select bank0
  1577     0FB8  1303               	bcf	3,6	;RP1=0, select bank0
  1578     0FB9  0320               	decf	PWM_duty@canal,w
  1579     0FBA  0421               	iorwf	PWM_duty@canal+1,w
  1580     0FBB  1D03               	btfss	3,2
  1581     0FBC  2FBE               	goto	u2951
  1582     0FBD  2FBF               	goto	u2950
  1583     0FBE                     u2951:
  1584     0FBE  2FDC               	goto	l2137
  1585     0FBF                     u2950:
  1586     0FBF                     l2131:
  1587                           
  1588                           ;PWM_Library.c: 43:     CCPR1L = DutyCycle>>2;
  1589     0FBF  0823               	movf	PWM_duty@DutyCycle+1,w
  1590     0FC0  00F5               	movwf	??_PWM_duty+1
  1591     0FC1  0822               	movf	PWM_duty@DutyCycle,w
  1592     0FC2  00F4               	movwf	??_PWM_duty
  1593     0FC3  0D75               	rlf	??_PWM_duty+1,w
  1594     0FC4  0CF5               	rrf	??_PWM_duty+1,f
  1595     0FC5  0CF4               	rrf	??_PWM_duty,f
  1596     0FC6  0D75               	rlf	??_PWM_duty+1,w
  1597     0FC7  0CF5               	rrf	??_PWM_duty+1,f
  1598     0FC8  0CF4               	rrf	??_PWM_duty,f
  1599     0FC9  0874               	movf	??_PWM_duty,w
  1600     0FCA  0095               	movwf	21	;volatile
  1601     0FCB                     l2133:
  1602                           
  1603                           ;PWM_Library.c: 44:     CCP1CON = CCP1CON&0xCF;
  1604     0FCB  0817               	movf	23,w	;volatile
  1605     0FCC  39CF               	andlw	207
  1606     0FCD  0097               	movwf	23	;volatile
  1607     0FCE                     l2135:
  1608                           
  1609                           ;PWM_Library.c: 45:     CCP1CON = CCP1CON|(0x30&(DutyCycle<<4));
  1610     0FCE  0822               	movf	PWM_duty@DutyCycle,w
  1611     0FCF  00F4               	movwf	??_PWM_duty
  1612     0FD0  3003               	movlw	3
  1613     0FD1                     u2965:
  1614     0FD1  1003               	clrc
  1615     0FD2  0DF4               	rlf	??_PWM_duty,f
  1616     0FD3  3EFF               	addlw	-1
  1617     0FD4  1D03               	skipz
  1618     0FD5  2FD1               	goto	u2965
  1619     0FD6  1003               	clrc
  1620     0FD7  0D74               	rlf	??_PWM_duty,w
  1621     0FD8  3930               	andlw	48
  1622     0FD9  0417               	iorwf	23,w	;volatile
  1623     0FDA  0097               	movwf	23	;volatile
  1624                           
  1625                           ;PWM_Library.c: 46:     }
  1626     0FDB  2FFF               	goto	l130
  1627     0FDC                     l2137:
  1628     0FDC  3002               	movlw	2
  1629     0FDD  0620               	xorwf	PWM_duty@canal,w
  1630     0FDE  0421               	iorwf	PWM_duty@canal+1,w
  1631     0FDF  1D03               	btfss	3,2
  1632     0FE0  2FE2               	goto	u2971
  1633     0FE1  2FE3               	goto	u2970
  1634     0FE2                     u2971:
  1635     0FE2  2FFF               	goto	l130
  1636     0FE3                     u2970:
  1637     0FE3                     l2139:
  1638                           
  1639                           ;PWM_Library.c: 48:     CCPR2L = DutyCycle>>2;
  1640     0FE3  0823               	movf	PWM_duty@DutyCycle+1,w
  1641     0FE4  00F5               	movwf	??_PWM_duty+1
  1642     0FE5  0822               	movf	PWM_duty@DutyCycle,w
  1643     0FE6  00F4               	movwf	??_PWM_duty
  1644     0FE7  0D75               	rlf	??_PWM_duty+1,w
  1645     0FE8  0CF5               	rrf	??_PWM_duty+1,f
  1646     0FE9  0CF4               	rrf	??_PWM_duty,f
  1647     0FEA  0D75               	rlf	??_PWM_duty+1,w
  1648     0FEB  0CF5               	rrf	??_PWM_duty+1,f
  1649     0FEC  0CF4               	rrf	??_PWM_duty,f
  1650     0FED  0874               	movf	??_PWM_duty,w
  1651     0FEE  009B               	movwf	27	;volatile
  1652     0FEF                     l2141:
  1653                           
  1654                           ;PWM_Library.c: 49:     CCP2CON = CCP2CON&0xCF;
  1655     0FEF  081D               	movf	29,w	;volatile
  1656     0FF0  39CF               	andlw	207
  1657     0FF1  009D               	movwf	29	;volatile
  1658     0FF2                     l2143:
  1659                           
  1660                           ;PWM_Library.c: 50:     CCP2CON = CCP2CON|(0x30&(DutyCycle<<4));
  1661     0FF2  0822               	movf	PWM_duty@DutyCycle,w
  1662     0FF3  00F4               	movwf	??_PWM_duty
  1663     0FF4  3003               	movlw	3
  1664     0FF5                     u2985:
  1665     0FF5  1003               	clrc
  1666     0FF6  0DF4               	rlf	??_PWM_duty,f
  1667     0FF7  3EFF               	addlw	-1
  1668     0FF8  1D03               	skipz
  1669     0FF9  2FF5               	goto	u2985
  1670     0FFA  1003               	clrc
  1671     0FFB  0D74               	rlf	??_PWM_duty,w
  1672     0FFC  3930               	andlw	48
  1673     0FFD  041D               	iorwf	29,w	;volatile
  1674     0FFE  009D               	movwf	29	;volatile
  1675     0FFF                     l130:
  1676     0FFF  0008               	return
  1677     1000                     __end_of_PWM_duty:
  1678                           
  1679                           	psect	text7
  1680     0634                     __ptext7:	
  1681 ;; *************** function _PWM_config *****************
  1682 ;; Defined at:
  1683 ;;		line 19 in file "PWM_Library.c"
  1684 ;; Parameters:    Size  Location     Type
  1685 ;;  canal           2   69[BANK0 ] int 
  1686 ;;  periodo_ms      4   71[BANK0 ] float 
  1687 ;; Auto vars:     Size  Location     Type
  1688 ;;  valPR2          2    4[BANK1 ] int 
  1689 ;; Return value:  Size  Location     Type
  1690 ;;                  1    wreg      void 
  1691 ;; Registers used:
  1692 ;;		wreg, status,2, status,0, btemp+1, pclath, cstack
  1693 ;; Tracked objects:
  1694 ;;		On entry : 0/0
  1695 ;;		On exit  : 0/0
  1696 ;;		Unchanged: 0/0
  1697 ;; Data sizes:     COMMON   BANK0   BANK1   BANK3   BANK2
  1698 ;;      Params:         0       6       0       0       0
  1699 ;;      Locals:         0       0       6       0       0
  1700 ;;      Temps:          0       0       0       0       0
  1701 ;;      Totals:         0       6       6       0       0
  1702 ;;Total ram usage:       12 bytes
  1703 ;; Hardware stack levels used: 1
  1704 ;; Hardware stack levels required when called: 3
  1705 ;; This function calls:
  1706 ;;		___fldiv
  1707 ;;		___flmul
  1708 ;;		___fltol
  1709 ;; This function is called by:
  1710 ;;		_main
  1711 ;; This function uses a non-reentrant model
  1712 ;;
  1713                           
  1714     0634                     _PWM_config:	
  1715                           ;psect for function _PWM_config
  1716                           
  1717     0634                     l2101:	
  1718                           ;incstack = 0
  1719                           ; Regs used in _PWM_config: [wreg+status,2+status,0+btemp+1+pclath+cstack]
  1720                           
  1721                           
  1722                           ;PWM_Library.c: 20:     int valPR2 = (int)((periodo_ms/1000)*500000/(16*4))-1;
  1723     0634  1283               	bcf	3,5	;RP0=0, select bank0
  1724     0635  1303               	bcf	3,6	;RP1=0, select bank0
  1725     0636  086A               	movf	PWM_config@periodo_ms+3,w
  1726     0637  00AE               	movwf	___fldiv@b+3
  1727     0638  0869               	movf	PWM_config@periodo_ms+2,w
  1728     0639  00AD               	movwf	___fldiv@b+2
  1729     063A  0868               	movf	PWM_config@periodo_ms+1,w
  1730     063B  00AC               	movwf	___fldiv@b+1
  1731     063C  0867               	movf	PWM_config@periodo_ms,w
  1732     063D  00AB               	movwf	___fldiv@b
  1733     063E  3044               	movlw	68
  1734     063F  00AA               	movwf	___fldiv@a+3
  1735     0640  307A               	movlw	122
  1736     0641  00A9               	movwf	___fldiv@a+2
  1737     0642  3000               	movlw	0
  1738     0643  00A8               	movwf	___fldiv@a+1
  1739     0644  3000               	movlw	0
  1740     0645  00A7               	movwf	___fldiv@a
  1741     0646  120A  118A  2369  120A  118A  	fcall	___fldiv
  1742     064B  1283               	bcf	3,5	;RP0=0, select bank0
  1743     064C  1303               	bcf	3,6	;RP1=0, select bank0
  1744     064D  082A               	movf	?___fldiv+3,w
  1745     064E  00C8               	movwf	___flmul@a+3
  1746     064F  0829               	movf	?___fldiv+2,w
  1747     0650  00C7               	movwf	___flmul@a+2
  1748     0651  0828               	movf	?___fldiv+1,w
  1749     0652  00C6               	movwf	___flmul@a+1
  1750     0653  0827               	movf	?___fldiv,w
  1751     0654  00C5               	movwf	___flmul@a
  1752     0655  3048               	movlw	72
  1753     0656  00C4               	movwf	___flmul@b+3
  1754     0657  30F4               	movlw	244
  1755     0658  00C3               	movwf	___flmul@b+2
  1756     0659  3024               	movlw	36
  1757     065A  00C2               	movwf	___flmul@b+1
  1758     065B  3000               	movlw	0
  1759     065C  00C1               	movwf	___flmul@b
  1760     065D  120A  118A  2024  120A  118A  	fcall	___flmul
  1761     0662  1283               	bcf	3,5	;RP0=0, select bank0
  1762     0663  1303               	bcf	3,6	;RP1=0, select bank0
  1763     0664  0844               	movf	?___flmul+3,w
  1764     0665  1683               	bsf	3,5	;RP0=1, select bank1
  1765     0666  1303               	bcf	3,6	;RP1=0, select bank1
  1766     0667  00AB               	movwf	(_PWM_config$933+3)^(0+128)
  1767     0668  1283               	bcf	3,5	;RP0=0, select bank0
  1768     0669  1303               	bcf	3,6	;RP1=0, select bank0
  1769     066A  0843               	movf	?___flmul+2,w
  1770     066B  1683               	bsf	3,5	;RP0=1, select bank1
  1771     066C  1303               	bcf	3,6	;RP1=0, select bank1
  1772     066D  00AA               	movwf	(_PWM_config$933+2)^(0+128)
  1773     066E  1283               	bcf	3,5	;RP0=0, select bank0
  1774     066F  1303               	bcf	3,6	;RP1=0, select bank0
  1775     0670  0842               	movf	?___flmul+1,w
  1776     0671  1683               	bsf	3,5	;RP0=1, select bank1
  1777     0672  1303               	bcf	3,6	;RP1=0, select bank1
  1778     0673  00A9               	movwf	(_PWM_config$933+1)^(0+128)
  1779     0674  1283               	bcf	3,5	;RP0=0, select bank0
  1780     0675  1303               	bcf	3,6	;RP1=0, select bank0
  1781     0676  0841               	movf	?___flmul,w
  1782     0677  1683               	bsf	3,5	;RP0=1, select bank1
  1783     0678  1303               	bcf	3,6	;RP1=0, select bank1
  1784     0679  00A8               	movwf	_PWM_config$933^(0+128)
  1785                           
  1786                           ;PWM_Library.c: 20:     int valPR2 = (int)((periodo_ms/1000)*500000/(16*4))-1;
  1787     067A  082B               	movf	(_PWM_config$933+3)^(0+128),w
  1788     067B  1283               	bcf	3,5	;RP0=0, select bank0
  1789     067C  1303               	bcf	3,6	;RP1=0, select bank0
  1790     067D  00AE               	movwf	___fldiv@b+3
  1791     067E  1683               	bsf	3,5	;RP0=1, select bank1
  1792     067F  1303               	bcf	3,6	;RP1=0, select bank1
  1793     0680  082A               	movf	(_PWM_config$933+2)^(0+128),w
  1794     0681  1283               	bcf	3,5	;RP0=0, select bank0
  1795     0682  1303               	bcf	3,6	;RP1=0, select bank0
  1796     0683  00AD               	movwf	___fldiv@b+2
  1797     0684  1683               	bsf	3,5	;RP0=1, select bank1
  1798     0685  1303               	bcf	3,6	;RP1=0, select bank1
  1799     0686  0829               	movf	(_PWM_config$933+1)^(0+128),w
  1800     0687  1283               	bcf	3,5	;RP0=0, select bank0
  1801     0688  1303               	bcf	3,6	;RP1=0, select bank0
  1802     0689  00AC               	movwf	___fldiv@b+1
  1803     068A  1683               	bsf	3,5	;RP0=1, select bank1
  1804     068B  1303               	bcf	3,6	;RP1=0, select bank1
  1805     068C  0828               	movf	_PWM_config$933^(0+128),w
  1806     068D  1283               	bcf	3,5	;RP0=0, select bank0
  1807     068E  1303               	bcf	3,6	;RP1=0, select bank0
  1808     068F  00AB               	movwf	___fldiv@b
  1809     0690  3042               	movlw	66
  1810     0691  00AA               	movwf	___fldiv@a+3
  1811     0692  3080               	movlw	128
  1812     0693  00A9               	movwf	___fldiv@a+2
  1813     0694  3000               	movlw	0
  1814     0695  00A8               	movwf	___fldiv@a+1
  1815     0696  3000               	movlw	0
  1816     0697  00A7               	movwf	___fldiv@a
  1817     0698  120A  118A  2369  120A  118A  	fcall	___fldiv
  1818     069D  1283               	bcf	3,5	;RP0=0, select bank0
  1819     069E  1303               	bcf	3,6	;RP1=0, select bank0
  1820     069F  082A               	movf	?___fldiv+3,w
  1821     06A0  00DE               	movwf	___fltol@f1+3
  1822     06A1  0829               	movf	?___fldiv+2,w
  1823     06A2  00DD               	movwf	___fltol@f1+2
  1824     06A3  0828               	movf	?___fldiv+1,w
  1825     06A4  00DC               	movwf	___fltol@f1+1
  1826     06A5  0827               	movf	?___fldiv,w
  1827     06A6  00DB               	movwf	___fltol@f1
  1828     06A7  120A  118A  26EE  120A  118A  	fcall	___fltol
  1829     06AC  1283               	bcf	3,5	;RP0=0, select bank0
  1830     06AD  1303               	bcf	3,6	;RP1=0, select bank0
  1831     06AE  085B               	movf	?___fltol,w
  1832     06AF  3EFF               	addlw	255
  1833     06B0  1683               	bsf	3,5	;RP0=1, select bank1
  1834     06B1  1303               	bcf	3,6	;RP1=0, select bank1
  1835     06B2  00AC               	movwf	PWM_config@valPR2^(0+128)
  1836     06B3  1283               	bcf	3,5	;RP0=0, select bank0
  1837     06B4  1303               	bcf	3,6	;RP1=0, select bank0
  1838     06B5  085C               	movf	?___fltol+1,w
  1839     06B6  1803               	skipnc
  1840     06B7  3E01               	addlw	1
  1841     06B8  3EFF               	addlw	255
  1842     06B9  1683               	bsf	3,5	;RP0=1, select bank1
  1843     06BA  1303               	bcf	3,6	;RP1=0, select bank1
  1844     06BB  00AD               	movwf	(PWM_config@valPR2+1)^(0+128)
  1845     06BC                     l2103:
  1846                           
  1847                           ;PWM_Library.c: 21:     if (canal == 1){
  1848     06BC  1283               	bcf	3,5	;RP0=0, select bank0
  1849     06BD  1303               	bcf	3,6	;RP1=0, select bank0
  1850     06BE  0365               	decf	PWM_config@canal,w
  1851     06BF  0466               	iorwf	PWM_config@canal+1,w
  1852     06C0  1D03               	btfss	3,2
  1853     06C1  2EC3               	goto	u2921
  1854     06C2  2EC4               	goto	u2920
  1855     06C3                     u2921:
  1856     06C3  2ED0               	goto	l2109
  1857     06C4                     u2920:
  1858     06C4                     l2105:
  1859                           
  1860                           ;PWM_Library.c: 22:         TRISC = 0b100;
  1861     06C4  3004               	movlw	4
  1862     06C5  1683               	bsf	3,5	;RP0=1, select bank1
  1863     06C6  1303               	bcf	3,6	;RP1=0, select bank1
  1864     06C7  0087               	movwf	7	;volatile
  1865                           
  1866                           ;PWM_Library.c: 23:         PR2 = (char)valPR2;
  1867     06C8  082C               	movf	PWM_config@valPR2^(0+128),w
  1868     06C9  0092               	movwf	18	;volatile
  1869                           
  1870                           ;PWM_Library.c: 24:         CCP1CON = 0x0C;
  1871     06CA  300C               	movlw	12
  1872     06CB  1283               	bcf	3,5	;RP0=0, select bank0
  1873     06CC  1303               	bcf	3,6	;RP1=0, select bank0
  1874     06CD  0097               	movwf	23	;volatile
  1875     06CE                     l2107:
  1876                           
  1877                           ;PWM_Library.c: 25:         CCPR1L = 0x00;
  1878     06CE  0195               	clrf	21	;volatile
  1879                           
  1880                           ;PWM_Library.c: 26:     }
  1881     06CF  2EE2               	goto	l2115
  1882     06D0                     l2109:
  1883     06D0  3002               	movlw	2
  1884     06D1  0665               	xorwf	PWM_config@canal,w
  1885     06D2  0466               	iorwf	PWM_config@canal+1,w
  1886     06D3  1D03               	btfss	3,2
  1887     06D4  2ED6               	goto	u2931
  1888     06D5  2ED7               	goto	u2930
  1889     06D6                     u2931:
  1890     06D6  2EE2               	goto	l2115
  1891     06D7                     u2930:
  1892     06D7                     l2111:
  1893                           
  1894                           ;PWM_Library.c: 28:         TRISC = 0b010;
  1895     06D7  3002               	movlw	2
  1896     06D8  1683               	bsf	3,5	;RP0=1, select bank1
  1897     06D9  1303               	bcf	3,6	;RP1=0, select bank1
  1898     06DA  0087               	movwf	7	;volatile
  1899                           
  1900                           ;PWM_Library.c: 29:         PR2 = (char)valPR2;
  1901     06DB  082C               	movf	PWM_config@valPR2^(0+128),w
  1902     06DC  0092               	movwf	18	;volatile
  1903                           
  1904                           ;PWM_Library.c: 30:         CCP2CON = 0x0C;
  1905     06DD  300C               	movlw	12
  1906     06DE  1283               	bcf	3,5	;RP0=0, select bank0
  1907     06DF  1303               	bcf	3,6	;RP1=0, select bank0
  1908     06E0  009D               	movwf	29	;volatile
  1909     06E1                     l2113:
  1910                           
  1911                           ;PWM_Library.c: 31:         CCPR2L = 0x00;
  1912     06E1  019B               	clrf	27	;volatile
  1913     06E2                     l2115:
  1914                           
  1915                           ;PWM_Library.c: 33:     TMR2IF = 0;
  1916     06E2  108C               	bcf	12,1	;volatile
  1917     06E3                     l2117:
  1918                           
  1919                           ;PWM_Library.c: 34:     T2CON = 0x07;
  1920     06E3  3007               	movlw	7
  1921     06E4  0092               	movwf	18	;volatile
  1922     06E5                     l121:	
  1923                           ;PWM_Library.c: 35:     while (!TMR2IF){;}
  1924                           
  1925     06E5  1C8C               	btfss	12,1	;volatile
  1926     06E6  2EE8               	goto	u2941
  1927     06E7  2EE9               	goto	u2940
  1928     06E8                     u2941:
  1929     06E8  2EE5               	goto	l121
  1930     06E9                     u2940:
  1931     06E9                     l123:
  1932                           
  1933                           ;PWM_Library.c: 36:     TMR2IF = 0;
  1934     06E9  108C               	bcf	12,1	;volatile
  1935     06EA                     l2119:
  1936                           
  1937                           ;PWM_Library.c: 37:     TRISC = 0b000;
  1938     06EA  1683               	bsf	3,5	;RP0=1, select bank1
  1939     06EB  1303               	bcf	3,6	;RP1=0, select bank1
  1940     06EC  0187               	clrf	7	;volatile
  1941     06ED                     l124:
  1942     06ED  0008               	return
  1943     06EE                     __end_of_PWM_config:
  1944                           
  1945                           	psect	text8
  1946     06EE                     __ptext8:	
  1947 ;; *************** function ___fltol *****************
  1948 ;; Defined at:
  1949 ;;		line 43 in file "C:\Program Files\Microchip\xc8\v2.40\pic\sources\c90\common\fltol.c"
  1950 ;; Parameters:    Size  Location     Type
  1951 ;;  f1              4   59[BANK0 ] void 
  1952 ;; Auto vars:     Size  Location     Type
  1953 ;;  exp1            1   68[BANK0 ] unsigned char 
  1954 ;;  sign1           1   67[BANK0 ] unsigned char 
  1955 ;; Return value:  Size  Location     Type
  1956 ;;                  4   59[BANK0 ] long 
  1957 ;; Registers used:
  1958 ;;		wreg, status,2, status,0
  1959 ;; Tracked objects:
  1960 ;;		On entry : 0/0
  1961 ;;		On exit  : 0/0
  1962 ;;		Unchanged: 0/0
  1963 ;; Data sizes:     COMMON   BANK0   BANK1   BANK3   BANK2
  1964 ;;      Params:         0       4       0       0       0
  1965 ;;      Locals:         0       2       0       0       0
  1966 ;;      Temps:          0       4       0       0       0
  1967 ;;      Totals:         0      10       0       0       0
  1968 ;;Total ram usage:       10 bytes
  1969 ;; Hardware stack levels used: 1
  1970 ;; Hardware stack levels required when called: 1
  1971 ;; This function calls:
  1972 ;;		Nothing
  1973 ;; This function is called by:
  1974 ;;		_PWM_config
  1975 ;; This function uses a non-reentrant model
  1976 ;;
  1977                           
  1978     06EE                     ___fltol:	
  1979                           ;psect for function ___fltol
  1980                           
  1981     06EE                     l1783:	
  1982                           ;incstack = 0
  1983                           ; Regs used in ___fltol: [wreg+status,2+status,0]
  1984                           
  1985     06EE  1003               	clrc
  1986     06EF  1283               	bcf	3,5	;RP0=0, select bank0
  1987     06F0  1303               	bcf	3,6	;RP1=0, select bank0
  1988     06F1  0D5D               	rlf	___fltol@f1+2,w
  1989     06F2  0D5E               	rlf	___fltol@f1+3,w
  1990     06F3  00E4               	movwf	___fltol@exp1
  1991     06F4  0864               	movf	___fltol@exp1,w
  1992     06F5  1D03               	btfss	3,2
  1993     06F6  2EF8               	goto	u2161
  1994     06F7  2EF9               	goto	u2160
  1995     06F8                     u2161:
  1996     06F8  2F02               	goto	l1789
  1997     06F9                     u2160:
  1998     06F9                     l1785:
  1999     06F9  3000               	movlw	0
  2000     06FA  00DE               	movwf	?___fltol+3
  2001     06FB  3000               	movlw	0
  2002     06FC  00DD               	movwf	?___fltol+2
  2003     06FD  3000               	movlw	0
  2004     06FE  00DC               	movwf	?___fltol+1
  2005     06FF  3000               	movlw	0
  2006     0700  00DB               	movwf	?___fltol
  2007     0701  2F65               	goto	l407
  2008     0702                     l1789:
  2009     0702  085B               	movf	___fltol@f1,w
  2010     0703  00DF               	movwf	??___fltol
  2011     0704  085C               	movf	___fltol@f1+1,w
  2012     0705  00E0               	movwf	??___fltol+1
  2013     0706  085D               	movf	___fltol@f1+2,w
  2014     0707  00E1               	movwf	??___fltol+2
  2015     0708  085E               	movf	___fltol@f1+3,w
  2016     0709  00E2               	movwf	??___fltol+3
  2017     070A  301F               	movlw	31
  2018     070B                     u2175:
  2019     070B  1003               	clrc
  2020     070C  0CE2               	rrf	??___fltol+3,f
  2021     070D  0CE1               	rrf	??___fltol+2,f
  2022     070E  0CE0               	rrf	??___fltol+1,f
  2023     070F  0CDF               	rrf	??___fltol,f
  2024     0710                     u2170:
  2025     0710  3EFF               	addlw	-1
  2026     0711  1D03               	skipz
  2027     0712  2F0B               	goto	u2175
  2028     0713  085F               	movf	??___fltol,w
  2029     0714  00E3               	movwf	___fltol@sign1
  2030     0715                     l1791:
  2031     0715  17DD               	bsf	___fltol@f1+2,7
  2032     0716                     l1793:
  2033     0716  30FF               	movlw	255
  2034     0717  05DB               	andwf	___fltol@f1,f
  2035     0718  30FF               	movlw	255
  2036     0719  05DC               	andwf	___fltol@f1+1,f
  2037     071A  30FF               	movlw	255
  2038     071B  05DD               	andwf	___fltol@f1+2,f
  2039     071C  3000               	movlw	0
  2040     071D  05DE               	andwf	___fltol@f1+3,f
  2041     071E                     l1795:
  2042     071E  3096               	movlw	150
  2043     071F  02E4               	subwf	___fltol@exp1,f
  2044     0720                     l1797:
  2045     0720  1FE4               	btfss	___fltol@exp1,7
  2046     0721  2F23               	goto	u2181
  2047     0722  2F24               	goto	u2180
  2048     0723                     u2181:
  2049     0723  2F3E               	goto	l1807
  2050     0724                     u2180:
  2051     0724                     l1799:
  2052     0724  0864               	movf	___fltol@exp1,w
  2053     0725  3A80               	xorlw	128
  2054     0726  3E97               	addlw	151
  2055     0727  1803               	skipnc
  2056     0728  2F2A               	goto	u2191
  2057     0729  2F2B               	goto	u2190
  2058     072A                     u2191:
  2059     072A  2F2C               	goto	l1805
  2060     072B                     u2190:
  2061     072B  2EF9               	goto	l1785
  2062     072C                     l1805:
  2063     072C  3001               	movlw	1
  2064     072D                     u2205:
  2065     072D  1003               	clrc
  2066     072E  0CDE               	rrf	___fltol@f1+3,f
  2067     072F  0CDD               	rrf	___fltol@f1+2,f
  2068     0730  0CDC               	rrf	___fltol@f1+1,f
  2069     0731  0CDB               	rrf	___fltol@f1,f
  2070     0732  3EFF               	addlw	-1
  2071     0733  1D03               	skipz
  2072     0734  2F2D               	goto	u2205
  2073     0735  3001               	movlw	1
  2074     0736  00DF               	movwf	??___fltol
  2075     0737  085F               	movf	??___fltol,w
  2076     0738  07E4               	addwf	___fltol@exp1,f
  2077     0739  1D03               	btfss	3,2
  2078     073A  2F3C               	goto	u2211
  2079     073B  2F3D               	goto	u2210
  2080     073C                     u2211:
  2081     073C  2F2C               	goto	l1805
  2082     073D                     u2210:
  2083     073D  2F55               	goto	l1815
  2084     073E                     l1807:
  2085     073E  3020               	movlw	32
  2086     073F  0264               	subwf	___fltol@exp1,w
  2087     0740  1C03               	skipc
  2088     0741  2F43               	goto	u2221
  2089     0742  2F44               	goto	u2220
  2090     0743                     u2221:
  2091     0743  2F50               	goto	l414
  2092     0744                     u2220:
  2093     0744  2EF9               	goto	l1785
  2094     0745                     l1813:
  2095     0745  3001               	movlw	1
  2096     0746  00DF               	movwf	??___fltol
  2097     0747                     u2235:
  2098     0747  1003               	clrc
  2099     0748  0DDB               	rlf	___fltol@f1,f
  2100     0749  0DDC               	rlf	___fltol@f1+1,f
  2101     074A  0DDD               	rlf	___fltol@f1+2,f
  2102     074B  0DDE               	rlf	___fltol@f1+3,f
  2103     074C  0BDF               	decfsz	??___fltol,f
  2104     074D  2F47               	goto	u2235
  2105     074E  3001               	movlw	1
  2106     074F  02E4               	subwf	___fltol@exp1,f
  2107     0750                     l414:
  2108     0750  0864               	movf	___fltol@exp1,w
  2109     0751  1D03               	btfss	3,2
  2110     0752  2F54               	goto	u2241
  2111     0753  2F55               	goto	u2240
  2112     0754                     u2241:
  2113     0754  2F45               	goto	l1813
  2114     0755                     u2240:
  2115     0755                     l1815:
  2116     0755  0863               	movf	___fltol@sign1,w
  2117     0756  1903               	btfsc	3,2
  2118     0757  2F59               	goto	u2251
  2119     0758  2F5A               	goto	u2250
  2120     0759                     u2251:
  2121     0759  2F65               	goto	l417
  2122     075A                     u2250:
  2123     075A                     l1817:
  2124     075A  09DB               	comf	___fltol@f1,f
  2125     075B  09DC               	comf	___fltol@f1+1,f
  2126     075C  09DD               	comf	___fltol@f1+2,f
  2127     075D  09DE               	comf	___fltol@f1+3,f
  2128     075E  0ADB               	incf	___fltol@f1,f
  2129     075F  1903               	skipnz
  2130     0760  0ADC               	incf	___fltol@f1+1,f
  2131     0761  1903               	skipnz
  2132     0762  0ADD               	incf	___fltol@f1+2,f
  2133     0763  1903               	skipnz
  2134     0764  0ADE               	incf	___fltol@f1+3,f
  2135     0765                     l417:
  2136     0765                     l407:
  2137     0765  0008               	return
  2138     0766                     __end_of___fltol:
  2139                           
  2140                           	psect	text9
  2141     0024                     __ptext9:	
  2142 ;; *************** function ___flmul *****************
  2143 ;; Defined at:
  2144 ;;		line 8 in file "C:\Program Files\Microchip\xc8\v2.40\pic\sources\c90\common\sprcmul.c"
  2145 ;; Parameters:    Size  Location     Type
  2146 ;;  b               4   33[BANK0 ] long 
  2147 ;;  a               4   37[BANK0 ] long 
  2148 ;; Auto vars:     Size  Location     Type
  2149 ;;  prod            4   53[BANK0 ] struct .
  2150 ;;  grs             4   48[BANK0 ] unsigned long 
  2151 ;;  temp            2   57[BANK0 ] struct .
  2152 ;;  bexp            1   52[BANK0 ] unsigned char 
  2153 ;;  aexp            1   47[BANK0 ] unsigned char 
  2154 ;;  sign            1   46[BANK0 ] unsigned char 
  2155 ;; Return value:  Size  Location     Type
  2156 ;;                  4   33[BANK0 ] unsigned char 
  2157 ;; Registers used:
  2158 ;;		wreg, status,2, status,0, btemp+1, pclath, cstack
  2159 ;; Tracked objects:
  2160 ;;		On entry : 0/0
  2161 ;;		On exit  : 0/0
  2162 ;;		Unchanged: 0/0
  2163 ;; Data sizes:     COMMON   BANK0   BANK1   BANK3   BANK2
  2164 ;;      Params:         0       8       0       0       0
  2165 ;;      Locals:         0      13       0       0       0
  2166 ;;      Temps:          0       5       0       0       0
  2167 ;;      Totals:         0      26       0       0       0
  2168 ;;Total ram usage:       26 bytes
  2169 ;; Hardware stack levels used: 1
  2170 ;; Hardware stack levels required when called: 2
  2171 ;; This function calls:
  2172 ;;		__Umul8_16
  2173 ;; This function is called by:
  2174 ;;		_PWM_config
  2175 ;; This function uses a non-reentrant model
  2176 ;;
  2177                           
  2178     0024                     ___flmul:	
  2179                           ;psect for function ___flmul
  2180                           
  2181     0024                     l1961:	
  2182                           ;incstack = 0
  2183                           ; Regs used in ___flmul: [wreg+status,2+status,0+btemp+1+pclath+cstack]
  2184                           
  2185     0024  1283               	bcf	3,5	;RP0=0, select bank0
  2186     0025  1303               	bcf	3,6	;RP1=0, select bank0
  2187     0026  0844               	movf	___flmul@b+3,w
  2188     0027  3980               	andlw	128
  2189     0028  00CE               	movwf	___flmul@sign
  2190     0029                     l1963:
  2191     0029  0844               	movf	___flmul@b+3,w
  2192     002A  00C9               	movwf	??___flmul
  2193     002B  0749               	addwf	??___flmul,w
  2194     002C  00D4               	movwf	___flmul@bexp
  2195     002D                     l1965:
  2196     002D  1FC3               	btfss	___flmul@b+2,7
  2197     002E  2830               	goto	u2551
  2198     002F  2831               	goto	u2550
  2199     0030                     u2551:
  2200     0030  2832               	goto	l1969
  2201     0031                     u2550:
  2202     0031                     l1967:
  2203     0031  1454               	bsf	___flmul@bexp,0
  2204     0032                     l1969:
  2205     0032  0854               	movf	___flmul@bexp,w
  2206     0033  1903               	btfsc	3,2
  2207     0034  2836               	goto	u2561
  2208     0035  2837               	goto	u2560
  2209     0036                     u2561:
  2210     0036  2846               	goto	l1977
  2211     0037                     u2560:
  2212     0037                     l1971:
  2213     0037  0A54               	incf	___flmul@bexp,w
  2214     0038  1D03               	btfss	3,2
  2215     0039  283B               	goto	u2571
  2216     003A  283C               	goto	u2570
  2217     003B                     u2571:
  2218     003B  2844               	goto	l1975
  2219     003C                     u2570:
  2220     003C                     l1973:
  2221     003C  3000               	movlw	0
  2222     003D  00C4               	movwf	___flmul@b+3
  2223     003E  3000               	movlw	0
  2224     003F  00C3               	movwf	___flmul@b+2
  2225     0040  3000               	movlw	0
  2226     0041  00C2               	movwf	___flmul@b+1
  2227     0042  3000               	movlw	0
  2228     0043  00C1               	movwf	___flmul@b
  2229     0044                     l1975:
  2230     0044  17C3               	bsf	___flmul@b+2,7
  2231     0045  284E               	goto	l1979
  2232     0046                     l1977:
  2233     0046  3000               	movlw	0
  2234     0047  00C4               	movwf	___flmul@b+3
  2235     0048  3000               	movlw	0
  2236     0049  00C3               	movwf	___flmul@b+2
  2237     004A  3000               	movlw	0
  2238     004B  00C2               	movwf	___flmul@b+1
  2239     004C  3000               	movlw	0
  2240     004D  00C1               	movwf	___flmul@b
  2241     004E                     l1979:
  2242     004E  0848               	movf	___flmul@a+3,w
  2243     004F  3980               	andlw	128
  2244     0050  00C9               	movwf	??___flmul
  2245     0051  0849               	movf	??___flmul,w
  2246     0052  06CE               	xorwf	___flmul@sign,f
  2247     0053                     l1981:
  2248     0053  0848               	movf	___flmul@a+3,w
  2249     0054  00C9               	movwf	??___flmul
  2250     0055  0749               	addwf	??___flmul,w
  2251     0056  00CF               	movwf	___flmul@aexp
  2252     0057                     l1983:
  2253     0057  1FC7               	btfss	___flmul@a+2,7
  2254     0058  285A               	goto	u2581
  2255     0059  285B               	goto	u2580
  2256     005A                     u2581:
  2257     005A  285C               	goto	l1987
  2258     005B                     u2580:
  2259     005B                     l1985:
  2260     005B  144F               	bsf	___flmul@aexp,0
  2261     005C                     l1987:
  2262     005C  084F               	movf	___flmul@aexp,w
  2263     005D  1903               	btfsc	3,2
  2264     005E  2860               	goto	u2591
  2265     005F  2861               	goto	u2590
  2266     0060                     u2591:
  2267     0060  2870               	goto	l1995
  2268     0061                     u2590:
  2269     0061                     l1989:
  2270     0061  0A4F               	incf	___flmul@aexp,w
  2271     0062  1D03               	btfss	3,2
  2272     0063  2865               	goto	u2601
  2273     0064  2866               	goto	u2600
  2274     0065                     u2601:
  2275     0065  286E               	goto	l1993
  2276     0066                     u2600:
  2277     0066                     l1991:
  2278     0066  3000               	movlw	0
  2279     0067  00C8               	movwf	___flmul@a+3
  2280     0068  3000               	movlw	0
  2281     0069  00C7               	movwf	___flmul@a+2
  2282     006A  3000               	movlw	0
  2283     006B  00C6               	movwf	___flmul@a+1
  2284     006C  3000               	movlw	0
  2285     006D  00C5               	movwf	___flmul@a
  2286     006E                     l1993:
  2287     006E  17C7               	bsf	___flmul@a+2,7
  2288     006F  2878               	goto	l1997
  2289     0070                     l1995:
  2290     0070  3000               	movlw	0
  2291     0071  00C8               	movwf	___flmul@a+3
  2292     0072  3000               	movlw	0
  2293     0073  00C7               	movwf	___flmul@a+2
  2294     0074  3000               	movlw	0
  2295     0075  00C6               	movwf	___flmul@a+1
  2296     0076  3000               	movlw	0
  2297     0077  00C5               	movwf	___flmul@a
  2298     0078                     l1997:
  2299     0078  084F               	movf	___flmul@aexp,w
  2300     0079  1903               	btfsc	3,2
  2301     007A  287C               	goto	u2611
  2302     007B  287D               	goto	u2610
  2303     007C                     u2611:
  2304     007C  2882               	goto	l2001
  2305     007D                     u2610:
  2306     007D                     l1999:
  2307     007D  0854               	movf	___flmul@bexp,w
  2308     007E  1D03               	btfss	3,2
  2309     007F  2881               	goto	u2621
  2310     0080  2882               	goto	u2620
  2311     0081                     u2621:
  2312     0081  288B               	goto	l2005
  2313     0082                     u2620:
  2314     0082                     l2001:
  2315     0082  3000               	movlw	0
  2316     0083  00C4               	movwf	?___flmul+3
  2317     0084  3000               	movlw	0
  2318     0085  00C3               	movwf	?___flmul+2
  2319     0086  3000               	movlw	0
  2320     0087  00C2               	movwf	?___flmul+1
  2321     0088  3000               	movlw	0
  2322     0089  00C1               	movwf	?___flmul
  2323     008A  2B68               	goto	l610
  2324     008B                     l2005:
  2325     008B  0841               	movf	___flmul@b,w
  2326     008C  00F4               	movwf	__Umul8_16@multiplicand
  2327     008D  0847               	movf	___flmul@a+2,w
  2328     008E  120A  158A  270F  120A  118A  	fcall	__Umul8_16
  2329     0093  0875               	movf	?__Umul8_16+1,w
  2330     0094  1283               	bcf	3,5	;RP0=0, select bank0
  2331     0095  1303               	bcf	3,6	;RP1=0, select bank0
  2332     0096  00DA               	movwf	___flmul@temp+1
  2333     0097  0874               	movf	?__Umul8_16,w
  2334     0098  00D9               	movwf	___flmul@temp
  2335     0099                     l2007:
  2336     0099  0859               	movf	___flmul@temp,w
  2337     009A  00C9               	movwf	??___flmul
  2338     009B  01CA               	clrf	??___flmul+1
  2339     009C  01CB               	clrf	??___flmul+2
  2340     009D  01CC               	clrf	??___flmul+3
  2341     009E  084C               	movf	??___flmul+3,w
  2342     009F  00D3               	movwf	___flmul@grs+3
  2343     00A0  084B               	movf	??___flmul+2,w
  2344     00A1  00D2               	movwf	___flmul@grs+2
  2345     00A2  084A               	movf	??___flmul+1,w
  2346     00A3  00D1               	movwf	___flmul@grs+1
  2347     00A4  0849               	movf	??___flmul,w
  2348     00A5  00D0               	movwf	___flmul@grs
  2349     00A6                     l2009:
  2350     00A6  085A               	movf	___flmul@temp+1,w
  2351     00A7  00C9               	movwf	??___flmul
  2352     00A8  01CA               	clrf	??___flmul+1
  2353     00A9  01CB               	clrf	??___flmul+2
  2354     00AA  01CC               	clrf	??___flmul+3
  2355     00AB  084C               	movf	??___flmul+3,w
  2356     00AC  00D8               	movwf	___flmul@prod+3
  2357     00AD  084B               	movf	??___flmul+2,w
  2358     00AE  00D7               	movwf	___flmul@prod+2
  2359     00AF  084A               	movf	??___flmul+1,w
  2360     00B0  00D6               	movwf	___flmul@prod+1
  2361     00B1  0849               	movf	??___flmul,w
  2362     00B2  00D5               	movwf	___flmul@prod
  2363     00B3  0842               	movf	___flmul@b+1,w
  2364     00B4  00F4               	movwf	__Umul8_16@multiplicand
  2365     00B5  0846               	movf	___flmul@a+1,w
  2366     00B6  120A  158A  270F  120A  118A  	fcall	__Umul8_16
  2367     00BB  0875               	movf	?__Umul8_16+1,w
  2368     00BC  1283               	bcf	3,5	;RP0=0, select bank0
  2369     00BD  1303               	bcf	3,6	;RP1=0, select bank0
  2370     00BE  00DA               	movwf	___flmul@temp+1
  2371     00BF  0874               	movf	?__Umul8_16,w
  2372     00C0  00D9               	movwf	___flmul@temp
  2373     00C1                     l2011:
  2374     00C1  0859               	movf	___flmul@temp,w
  2375     00C2  00C9               	movwf	??___flmul
  2376     00C3  01CA               	clrf	??___flmul+1
  2377     00C4  01CB               	clrf	??___flmul+2
  2378     00C5  01CC               	clrf	??___flmul+3
  2379     00C6  0849               	movf	??___flmul,w
  2380     00C7  07D0               	addwf	___flmul@grs,f
  2381     00C8  084A               	movf	??___flmul+1,w
  2382     00C9  1103               	clrz
  2383     00CA  1803               	skipnc
  2384     00CB  3E01               	addlw	1
  2385     00CC  1903               	skipnz
  2386     00CD  28CF               	goto	u2631
  2387     00CE  07D1               	addwf	___flmul@grs+1,f
  2388     00CF                     u2631:
  2389     00CF  084B               	movf	??___flmul+2,w
  2390     00D0  1103               	clrz
  2391     00D1  1803               	skipnc
  2392     00D2  3E01               	addlw	1
  2393     00D3  1903               	skipnz
  2394     00D4  28D6               	goto	u2632
  2395     00D5  07D2               	addwf	___flmul@grs+2,f
  2396     00D6                     u2632:
  2397     00D6  084C               	movf	??___flmul+3,w
  2398     00D7  1103               	clrz
  2399     00D8  1803               	skipnc
  2400     00D9  3E01               	addlw	1
  2401     00DA  1903               	skipnz
  2402     00DB  28DD               	goto	u2633
  2403     00DC  07D3               	addwf	___flmul@grs+3,f
  2404     00DD                     u2633:
  2405     00DD                     l2013:
  2406     00DD  085A               	movf	___flmul@temp+1,w
  2407     00DE  00C9               	movwf	??___flmul
  2408     00DF  01CA               	clrf	??___flmul+1
  2409     00E0  01CB               	clrf	??___flmul+2
  2410     00E1  01CC               	clrf	??___flmul+3
  2411     00E2  0849               	movf	??___flmul,w
  2412     00E3  07D5               	addwf	___flmul@prod,f
  2413     00E4  084A               	movf	??___flmul+1,w
  2414     00E5  1103               	clrz
  2415     00E6  1803               	skipnc
  2416     00E7  3E01               	addlw	1
  2417     00E8  1903               	skipnz
  2418     00E9  28EB               	goto	u2641
  2419     00EA  07D6               	addwf	___flmul@prod+1,f
  2420     00EB                     u2641:
  2421     00EB  084B               	movf	??___flmul+2,w
  2422     00EC  1103               	clrz
  2423     00ED  1803               	skipnc
  2424     00EE  3E01               	addlw	1
  2425     00EF  1903               	skipnz
  2426     00F0  28F2               	goto	u2642
  2427     00F1  07D7               	addwf	___flmul@prod+2,f
  2428     00F2                     u2642:
  2429     00F2  084C               	movf	??___flmul+3,w
  2430     00F3  1103               	clrz
  2431     00F4  1803               	skipnc
  2432     00F5  3E01               	addlw	1
  2433     00F6  1903               	skipnz
  2434     00F7  28F9               	goto	u2643
  2435     00F8  07D8               	addwf	___flmul@prod+3,f
  2436     00F9                     u2643:
  2437     00F9  0843               	movf	___flmul@b+2,w
  2438     00FA  00F4               	movwf	__Umul8_16@multiplicand
  2439     00FB  0845               	movf	___flmul@a,w
  2440     00FC  120A  158A  270F  120A  118A  	fcall	__Umul8_16
  2441     0101  0875               	movf	?__Umul8_16+1,w
  2442     0102  1283               	bcf	3,5	;RP0=0, select bank0
  2443     0103  1303               	bcf	3,6	;RP1=0, select bank0
  2444     0104  00DA               	movwf	___flmul@temp+1
  2445     0105  0874               	movf	?__Umul8_16,w
  2446     0106  00D9               	movwf	___flmul@temp
  2447     0107                     l2015:
  2448     0107  0859               	movf	___flmul@temp,w
  2449     0108  00C9               	movwf	??___flmul
  2450     0109  01CA               	clrf	??___flmul+1
  2451     010A  01CB               	clrf	??___flmul+2
  2452     010B  01CC               	clrf	??___flmul+3
  2453     010C  0849               	movf	??___flmul,w
  2454     010D  07D0               	addwf	___flmul@grs,f
  2455     010E  084A               	movf	??___flmul+1,w
  2456     010F  1103               	clrz
  2457     0110  1803               	skipnc
  2458     0111  3E01               	addlw	1
  2459     0112  1903               	skipnz
  2460     0113  2915               	goto	u2651
  2461     0114  07D1               	addwf	___flmul@grs+1,f
  2462     0115                     u2651:
  2463     0115  084B               	movf	??___flmul+2,w
  2464     0116  1103               	clrz
  2465     0117  1803               	skipnc
  2466     0118  3E01               	addlw	1
  2467     0119  1903               	skipnz
  2468     011A  291C               	goto	u2652
  2469     011B  07D2               	addwf	___flmul@grs+2,f
  2470     011C                     u2652:
  2471     011C  084C               	movf	??___flmul+3,w
  2472     011D  1103               	clrz
  2473     011E  1803               	skipnc
  2474     011F  3E01               	addlw	1
  2475     0120  1903               	skipnz
  2476     0121  2923               	goto	u2653
  2477     0122  07D3               	addwf	___flmul@grs+3,f
  2478     0123                     u2653:
  2479     0123                     l2017:
  2480     0123  085A               	movf	___flmul@temp+1,w
  2481     0124  00C9               	movwf	??___flmul
  2482     0125  01CA               	clrf	??___flmul+1
  2483     0126  01CB               	clrf	??___flmul+2
  2484     0127  01CC               	clrf	??___flmul+3
  2485     0128  0849               	movf	??___flmul,w
  2486     0129  07D5               	addwf	___flmul@prod,f
  2487     012A  084A               	movf	??___flmul+1,w
  2488     012B  1103               	clrz
  2489     012C  1803               	skipnc
  2490     012D  3E01               	addlw	1
  2491     012E  1903               	skipnz
  2492     012F  2931               	goto	u2661
  2493     0130  07D6               	addwf	___flmul@prod+1,f
  2494     0131                     u2661:
  2495     0131  084B               	movf	??___flmul+2,w
  2496     0132  1103               	clrz
  2497     0133  1803               	skipnc
  2498     0134  3E01               	addlw	1
  2499     0135  1903               	skipnz
  2500     0136  2938               	goto	u2662
  2501     0137  07D7               	addwf	___flmul@prod+2,f
  2502     0138                     u2662:
  2503     0138  084C               	movf	??___flmul+3,w
  2504     0139  1103               	clrz
  2505     013A  1803               	skipnc
  2506     013B  3E01               	addlw	1
  2507     013C  1903               	skipnz
  2508     013D  293F               	goto	u2663
  2509     013E  07D8               	addwf	___flmul@prod+3,f
  2510     013F                     u2663:
  2511     013F                     l2019:
  2512     013F  3008               	movlw	8
  2513     0140  00C9               	movwf	??___flmul
  2514     0141                     u2675:
  2515     0141  1003               	clrc
  2516     0142  0DD0               	rlf	___flmul@grs,f
  2517     0143  0DD1               	rlf	___flmul@grs+1,f
  2518     0144  0DD2               	rlf	___flmul@grs+2,f
  2519     0145  0DD3               	rlf	___flmul@grs+3,f
  2520     0146  0BC9               	decfsz	??___flmul,f
  2521     0147  2941               	goto	u2675
  2522     0148                     l2021:
  2523     0148  0842               	movf	___flmul@b+1,w
  2524     0149  00F4               	movwf	__Umul8_16@multiplicand
  2525     014A  0845               	movf	___flmul@a,w
  2526     014B  120A  158A  270F  120A  118A  	fcall	__Umul8_16
  2527     0150  0875               	movf	?__Umul8_16+1,w
  2528     0151  1283               	bcf	3,5	;RP0=0, select bank0
  2529     0152  1303               	bcf	3,6	;RP1=0, select bank0
  2530     0153  00DA               	movwf	___flmul@temp+1
  2531     0154  0874               	movf	?__Umul8_16,w
  2532     0155  00D9               	movwf	___flmul@temp
  2533     0156                     l2023:
  2534     0156  0859               	movf	___flmul@temp,w
  2535     0157  00C9               	movwf	??___flmul
  2536     0158  085A               	movf	___flmul@temp+1,w
  2537     0159  00CA               	movwf	??___flmul+1
  2538     015A  01CB               	clrf	??___flmul+2
  2539     015B  01CC               	clrf	??___flmul+3
  2540     015C  0849               	movf	??___flmul,w
  2541     015D  07D0               	addwf	___flmul@grs,f
  2542     015E  084A               	movf	??___flmul+1,w
  2543     015F  1103               	clrz
  2544     0160  1803               	skipnc
  2545     0161  3E01               	addlw	1
  2546     0162  1903               	skipnz
  2547     0163  2965               	goto	u2681
  2548     0164  07D1               	addwf	___flmul@grs+1,f
  2549     0165                     u2681:
  2550     0165  084B               	movf	??___flmul+2,w
  2551     0166  1103               	clrz
  2552     0167  1803               	skipnc
  2553     0168  3E01               	addlw	1
  2554     0169  1903               	skipnz
  2555     016A  296C               	goto	u2682
  2556     016B  07D2               	addwf	___flmul@grs+2,f
  2557     016C                     u2682:
  2558     016C  084C               	movf	??___flmul+3,w
  2559     016D  1103               	clrz
  2560     016E  1803               	skipnc
  2561     016F  3E01               	addlw	1
  2562     0170  1903               	skipnz
  2563     0171  2973               	goto	u2683
  2564     0172  07D3               	addwf	___flmul@grs+3,f
  2565     0173                     u2683:
  2566     0173                     l2025:
  2567     0173  0841               	movf	___flmul@b,w
  2568     0174  00F4               	movwf	__Umul8_16@multiplicand
  2569     0175  0846               	movf	___flmul@a+1,w
  2570     0176  120A  158A  270F  120A  118A  	fcall	__Umul8_16
  2571     017B  0875               	movf	?__Umul8_16+1,w
  2572     017C  1283               	bcf	3,5	;RP0=0, select bank0
  2573     017D  1303               	bcf	3,6	;RP1=0, select bank0
  2574     017E  00DA               	movwf	___flmul@temp+1
  2575     017F  0874               	movf	?__Umul8_16,w
  2576     0180  00D9               	movwf	___flmul@temp
  2577     0181                     l2027:
  2578     0181  0859               	movf	___flmul@temp,w
  2579     0182  00C9               	movwf	??___flmul
  2580     0183  085A               	movf	___flmul@temp+1,w
  2581     0184  00CA               	movwf	??___flmul+1
  2582     0185  01CB               	clrf	??___flmul+2
  2583     0186  01CC               	clrf	??___flmul+3
  2584     0187  0849               	movf	??___flmul,w
  2585     0188  07D0               	addwf	___flmul@grs,f
  2586     0189  084A               	movf	??___flmul+1,w
  2587     018A  1103               	clrz
  2588     018B  1803               	skipnc
  2589     018C  3E01               	addlw	1
  2590     018D  1903               	skipnz
  2591     018E  2990               	goto	u2691
  2592     018F  07D1               	addwf	___flmul@grs+1,f
  2593     0190                     u2691:
  2594     0190  084B               	movf	??___flmul+2,w
  2595     0191  1103               	clrz
  2596     0192  1803               	skipnc
  2597     0193  3E01               	addlw	1
  2598     0194  1903               	skipnz
  2599     0195  2997               	goto	u2692
  2600     0196  07D2               	addwf	___flmul@grs+2,f
  2601     0197                     u2692:
  2602     0197  084C               	movf	??___flmul+3,w
  2603     0198  1103               	clrz
  2604     0199  1803               	skipnc
  2605     019A  3E01               	addlw	1
  2606     019B  1903               	skipnz
  2607     019C  299E               	goto	u2693
  2608     019D  07D3               	addwf	___flmul@grs+3,f
  2609     019E                     u2693:
  2610     019E                     l2029:
  2611     019E  3008               	movlw	8
  2612     019F  00C9               	movwf	??___flmul
  2613     01A0                     u2705:
  2614     01A0  1003               	clrc
  2615     01A1  0DD0               	rlf	___flmul@grs,f
  2616     01A2  0DD1               	rlf	___flmul@grs+1,f
  2617     01A3  0DD2               	rlf	___flmul@grs+2,f
  2618     01A4  0DD3               	rlf	___flmul@grs+3,f
  2619     01A5  0BC9               	decfsz	??___flmul,f
  2620     01A6  29A0               	goto	u2705
  2621     01A7  0841               	movf	___flmul@b,w
  2622     01A8  00F4               	movwf	__Umul8_16@multiplicand
  2623     01A9  0845               	movf	___flmul@a,w
  2624     01AA  120A  158A  270F  120A  118A  	fcall	__Umul8_16
  2625     01AF  0875               	movf	?__Umul8_16+1,w
  2626     01B0  1283               	bcf	3,5	;RP0=0, select bank0
  2627     01B1  1303               	bcf	3,6	;RP1=0, select bank0
  2628     01B2  00DA               	movwf	___flmul@temp+1
  2629     01B3  0874               	movf	?__Umul8_16,w
  2630     01B4  00D9               	movwf	___flmul@temp
  2631     01B5                     l2031:
  2632     01B5  0859               	movf	___flmul@temp,w
  2633     01B6  00C9               	movwf	??___flmul
  2634     01B7  085A               	movf	___flmul@temp+1,w
  2635     01B8  00CA               	movwf	??___flmul+1
  2636     01B9  01CB               	clrf	??___flmul+2
  2637     01BA  01CC               	clrf	??___flmul+3
  2638     01BB  0849               	movf	??___flmul,w
  2639     01BC  07D0               	addwf	___flmul@grs,f
  2640     01BD  084A               	movf	??___flmul+1,w
  2641     01BE  1103               	clrz
  2642     01BF  1803               	skipnc
  2643     01C0  3E01               	addlw	1
  2644     01C1  1903               	skipnz
  2645     01C2  29C4               	goto	u2711
  2646     01C3  07D1               	addwf	___flmul@grs+1,f
  2647     01C4                     u2711:
  2648     01C4  084B               	movf	??___flmul+2,w
  2649     01C5  1103               	clrz
  2650     01C6  1803               	skipnc
  2651     01C7  3E01               	addlw	1
  2652     01C8  1903               	skipnz
  2653     01C9  29CB               	goto	u2712
  2654     01CA  07D2               	addwf	___flmul@grs+2,f
  2655     01CB                     u2712:
  2656     01CB  084C               	movf	??___flmul+3,w
  2657     01CC  1103               	clrz
  2658     01CD  1803               	skipnc
  2659     01CE  3E01               	addlw	1
  2660     01CF  1903               	skipnz
  2661     01D0  29D2               	goto	u2713
  2662     01D1  07D3               	addwf	___flmul@grs+3,f
  2663     01D2                     u2713:
  2664     01D2                     l2033:
  2665     01D2  0842               	movf	___flmul@b+1,w
  2666     01D3  00F4               	movwf	__Umul8_16@multiplicand
  2667     01D4  0847               	movf	___flmul@a+2,w
  2668     01D5  120A  158A  270F  120A  118A  	fcall	__Umul8_16
  2669     01DA  0875               	movf	?__Umul8_16+1,w
  2670     01DB  1283               	bcf	3,5	;RP0=0, select bank0
  2671     01DC  1303               	bcf	3,6	;RP1=0, select bank0
  2672     01DD  00DA               	movwf	___flmul@temp+1
  2673     01DE  0874               	movf	?__Umul8_16,w
  2674     01DF  00D9               	movwf	___flmul@temp
  2675     01E0  0859               	movf	___flmul@temp,w
  2676     01E1  00C9               	movwf	??___flmul
  2677     01E2  085A               	movf	___flmul@temp+1,w
  2678     01E3  00CA               	movwf	??___flmul+1
  2679     01E4  01CB               	clrf	??___flmul+2
  2680     01E5  01CC               	clrf	??___flmul+3
  2681     01E6  0849               	movf	??___flmul,w
  2682     01E7  07D5               	addwf	___flmul@prod,f
  2683     01E8  084A               	movf	??___flmul+1,w
  2684     01E9  1103               	clrz
  2685     01EA  1803               	skipnc
  2686     01EB  3E01               	addlw	1
  2687     01EC  1903               	skipnz
  2688     01ED  29EF               	goto	u2721
  2689     01EE  07D6               	addwf	___flmul@prod+1,f
  2690     01EF                     u2721:
  2691     01EF  084B               	movf	??___flmul+2,w
  2692     01F0  1103               	clrz
  2693     01F1  1803               	skipnc
  2694     01F2  3E01               	addlw	1
  2695     01F3  1903               	skipnz
  2696     01F4  29F6               	goto	u2722
  2697     01F5  07D7               	addwf	___flmul@prod+2,f
  2698     01F6                     u2722:
  2699     01F6  084C               	movf	??___flmul+3,w
  2700     01F7  1103               	clrz
  2701     01F8  1803               	skipnc
  2702     01F9  3E01               	addlw	1
  2703     01FA  1903               	skipnz
  2704     01FB  29FD               	goto	u2723
  2705     01FC  07D8               	addwf	___flmul@prod+3,f
  2706     01FD                     u2723:
  2707     01FD                     l2035:
  2708     01FD  0843               	movf	___flmul@b+2,w
  2709     01FE  00F4               	movwf	__Umul8_16@multiplicand
  2710     01FF  0846               	movf	___flmul@a+1,w
  2711     0200  120A  158A  270F  120A  118A  	fcall	__Umul8_16
  2712     0205  0875               	movf	?__Umul8_16+1,w
  2713     0206  1283               	bcf	3,5	;RP0=0, select bank0
  2714     0207  1303               	bcf	3,6	;RP1=0, select bank0
  2715     0208  00DA               	movwf	___flmul@temp+1
  2716     0209  0874               	movf	?__Umul8_16,w
  2717     020A  00D9               	movwf	___flmul@temp
  2718     020B                     l2037:
  2719     020B  0859               	movf	___flmul@temp,w
  2720     020C  00C9               	movwf	??___flmul
  2721     020D  085A               	movf	___flmul@temp+1,w
  2722     020E  00CA               	movwf	??___flmul+1
  2723     020F  01CB               	clrf	??___flmul+2
  2724     0210  01CC               	clrf	??___flmul+3
  2725     0211  0849               	movf	??___flmul,w
  2726     0212  07D5               	addwf	___flmul@prod,f
  2727     0213  084A               	movf	??___flmul+1,w
  2728     0214  1103               	clrz
  2729     0215  1803               	skipnc
  2730     0216  3E01               	addlw	1
  2731     0217  1903               	skipnz
  2732     0218  2A1A               	goto	u2731
  2733     0219  07D6               	addwf	___flmul@prod+1,f
  2734     021A                     u2731:
  2735     021A  084B               	movf	??___flmul+2,w
  2736     021B  1103               	clrz
  2737     021C  1803               	skipnc
  2738     021D  3E01               	addlw	1
  2739     021E  1903               	skipnz
  2740     021F  2A21               	goto	u2732
  2741     0220  07D7               	addwf	___flmul@prod+2,f
  2742     0221                     u2732:
  2743     0221  084C               	movf	??___flmul+3,w
  2744     0222  1103               	clrz
  2745     0223  1803               	skipnc
  2746     0224  3E01               	addlw	1
  2747     0225  1903               	skipnz
  2748     0226  2A28               	goto	u2733
  2749     0227  07D8               	addwf	___flmul@prod+3,f
  2750     0228                     u2733:
  2751     0228  0843               	movf	___flmul@b+2,w
  2752     0229  00F4               	movwf	__Umul8_16@multiplicand
  2753     022A  0847               	movf	___flmul@a+2,w
  2754     022B  120A  158A  270F  120A  118A  	fcall	__Umul8_16
  2755     0230  0875               	movf	?__Umul8_16+1,w
  2756     0231  1283               	bcf	3,5	;RP0=0, select bank0
  2757     0232  1303               	bcf	3,6	;RP1=0, select bank0
  2758     0233  00DA               	movwf	___flmul@temp+1
  2759     0234  0874               	movf	?__Umul8_16,w
  2760     0235  00D9               	movwf	___flmul@temp
  2761     0236                     l2039:
  2762     0236  0859               	movf	___flmul@temp,w
  2763     0237  00C9               	movwf	??___flmul
  2764     0238  085A               	movf	___flmul@temp+1,w
  2765     0239  00CA               	movwf	??___flmul+1
  2766     023A  01CB               	clrf	??___flmul+2
  2767     023B  01CC               	clrf	??___flmul+3
  2768     023C  3008               	movlw	8
  2769     023D                     u2745:
  2770     023D  1003               	clrc
  2771     023E  0DC9               	rlf	??___flmul,f
  2772     023F  0DCA               	rlf	??___flmul+1,f
  2773     0240  0DCB               	rlf	??___flmul+2,f
  2774     0241  0DCC               	rlf	??___flmul+3,f
  2775     0242                     u2740:
  2776     0242  3EFF               	addlw	-1
  2777     0243  1D03               	skipz
  2778     0244  2A3D               	goto	u2745
  2779     0245  0849               	movf	??___flmul,w
  2780     0246  07D5               	addwf	___flmul@prod,f
  2781     0247  084A               	movf	??___flmul+1,w
  2782     0248  1103               	clrz
  2783     0249  1803               	skipnc
  2784     024A  3E01               	addlw	1
  2785     024B  1903               	skipnz
  2786     024C  2A4E               	goto	u2751
  2787     024D  07D6               	addwf	___flmul@prod+1,f
  2788     024E                     u2751:
  2789     024E  084B               	movf	??___flmul+2,w
  2790     024F  1103               	clrz
  2791     0250  1803               	skipnc
  2792     0251  3E01               	addlw	1
  2793     0252  1903               	skipnz
  2794     0253  2A55               	goto	u2752
  2795     0254  07D7               	addwf	___flmul@prod+2,f
  2796     0255                     u2752:
  2797     0255  084C               	movf	??___flmul+3,w
  2798     0256  1103               	clrz
  2799     0257  1803               	skipnc
  2800     0258  3E01               	addlw	1
  2801     0259  1903               	skipnz
  2802     025A  2A5C               	goto	u2753
  2803     025B  07D8               	addwf	___flmul@prod+3,f
  2804     025C                     u2753:
  2805     025C                     l2041:
  2806     025C  0850               	movf	___flmul@grs,w
  2807     025D  00C9               	movwf	??___flmul
  2808     025E  0851               	movf	___flmul@grs+1,w
  2809     025F  00CA               	movwf	??___flmul+1
  2810     0260  0852               	movf	___flmul@grs+2,w
  2811     0261  00CB               	movwf	??___flmul+2
  2812     0262  0853               	movf	___flmul@grs+3,w
  2813     0263  00CC               	movwf	??___flmul+3
  2814     0264  3018               	movlw	24
  2815     0265                     u2765:
  2816     0265  1003               	clrc
  2817     0266  0CCC               	rrf	??___flmul+3,f
  2818     0267  0CCB               	rrf	??___flmul+2,f
  2819     0268  0CCA               	rrf	??___flmul+1,f
  2820     0269  0CC9               	rrf	??___flmul,f
  2821     026A                     u2760:
  2822     026A  3EFF               	addlw	-1
  2823     026B  1D03               	skipz
  2824     026C  2A65               	goto	u2765
  2825     026D  0849               	movf	??___flmul,w
  2826     026E  07D5               	addwf	___flmul@prod,f
  2827     026F  084A               	movf	??___flmul+1,w
  2828     0270  1103               	clrz
  2829     0271  1803               	skipnc
  2830     0272  3E01               	addlw	1
  2831     0273  1903               	skipnz
  2832     0274  2A76               	goto	u2771
  2833     0275  07D6               	addwf	___flmul@prod+1,f
  2834     0276                     u2771:
  2835     0276  084B               	movf	??___flmul+2,w
  2836     0277  1103               	clrz
  2837     0278  1803               	skipnc
  2838     0279  3E01               	addlw	1
  2839     027A  1903               	skipnz
  2840     027B  2A7D               	goto	u2772
  2841     027C  07D7               	addwf	___flmul@prod+2,f
  2842     027D                     u2772:
  2843     027D  084C               	movf	??___flmul+3,w
  2844     027E  1103               	clrz
  2845     027F  1803               	skipnc
  2846     0280  3E01               	addlw	1
  2847     0281  1903               	skipnz
  2848     0282  2A84               	goto	u2773
  2849     0283  07D8               	addwf	___flmul@prod+3,f
  2850     0284                     u2773:
  2851     0284                     l2043:
  2852     0284  3008               	movlw	8
  2853     0285  00C9               	movwf	??___flmul
  2854     0286                     u2785:
  2855     0286  1003               	clrc
  2856     0287  0DD0               	rlf	___flmul@grs,f
  2857     0288  0DD1               	rlf	___flmul@grs+1,f
  2858     0289  0DD2               	rlf	___flmul@grs+2,f
  2859     028A  0DD3               	rlf	___flmul@grs+3,f
  2860     028B  0BC9               	decfsz	??___flmul,f
  2861     028C  2A86               	goto	u2785
  2862     028D                     l2045:
  2863     028D  0854               	movf	___flmul@bexp,w
  2864     028E  074F               	addwf	___flmul@aexp,w
  2865     028F  00C9               	movwf	??___flmul
  2866     0290  01CA               	clrf	??___flmul+1
  2867     0291  0DCA               	rlf	??___flmul+1,f
  2868     0292  0849               	movf	??___flmul,w
  2869     0293  3E82               	addlw	130
  2870     0294  00D9               	movwf	___flmul@temp
  2871     0295  084A               	movf	??___flmul+1,w
  2872     0296  1803               	skipnc
  2873     0297  3E01               	addlw	1
  2874     0298  3EFF               	addlw	255
  2875     0299  00DA               	movwf	___flmul@temp+1
  2876     029A  2AB8               	goto	l2057
  2877     029B                     l2047:
  2878     029B  3001               	movlw	1
  2879     029C  00C9               	movwf	??___flmul
  2880     029D                     u2795:
  2881     029D  1003               	clrc
  2882     029E  0DD5               	rlf	___flmul@prod,f
  2883     029F  0DD6               	rlf	___flmul@prod+1,f
  2884     02A0  0DD7               	rlf	___flmul@prod+2,f
  2885     02A1  0DD8               	rlf	___flmul@prod+3,f
  2886     02A2  0BC9               	decfsz	??___flmul,f
  2887     02A3  2A9D               	goto	u2795
  2888     02A4                     l2049:
  2889     02A4  1FD3               	btfss	___flmul@grs+3,7
  2890     02A5  2AA7               	goto	u2801
  2891     02A6  2AA8               	goto	u2800
  2892     02A7                     u2801:
  2893     02A7  2AA9               	goto	l2053
  2894     02A8                     u2800:
  2895     02A8                     l2051:
  2896     02A8  1455               	bsf	___flmul@prod,0
  2897     02A9                     l2053:
  2898     02A9  3001               	movlw	1
  2899     02AA  00C9               	movwf	??___flmul
  2900     02AB                     u2815:
  2901     02AB  1003               	clrc
  2902     02AC  0DD0               	rlf	___flmul@grs,f
  2903     02AD  0DD1               	rlf	___flmul@grs+1,f
  2904     02AE  0DD2               	rlf	___flmul@grs+2,f
  2905     02AF  0DD3               	rlf	___flmul@grs+3,f
  2906     02B0  0BC9               	decfsz	??___flmul,f
  2907     02B1  2AAB               	goto	u2815
  2908     02B2                     l2055:
  2909     02B2  30FF               	movlw	255
  2910     02B3  07D9               	addwf	___flmul@temp,f
  2911     02B4  1803               	skipnc
  2912     02B5  0ADA               	incf	___flmul@temp+1,f
  2913     02B6  30FF               	movlw	255
  2914     02B7  07DA               	addwf	___flmul@temp+1,f
  2915     02B8                     l2057:
  2916     02B8  1FD7               	btfss	___flmul@prod+2,7
  2917     02B9  2ABB               	goto	u2821
  2918     02BA  2ABC               	goto	u2820
  2919     02BB                     u2821:
  2920     02BB  2A9B               	goto	l2047
  2921     02BC                     u2820:
  2922     02BC                     l2059:
  2923     02BC  01CF               	clrf	___flmul@aexp
  2924     02BD                     l2061:
  2925     02BD  1FD3               	btfss	___flmul@grs+3,7
  2926     02BE  2AC0               	goto	u2831
  2927     02BF  2AC1               	goto	u2830
  2928     02C0                     u2831:
  2929     02C0  2ADD               	goto	l2069
  2930     02C1                     u2830:
  2931     02C1                     l2063:
  2932     02C1  30FF               	movlw	255
  2933     02C2  0550               	andwf	___flmul@grs,w
  2934     02C3  00C9               	movwf	??___flmul
  2935     02C4  30FF               	movlw	255
  2936     02C5  0551               	andwf	___flmul@grs+1,w
  2937     02C6  00CA               	movwf	??___flmul+1
  2938     02C7  30FF               	movlw	255
  2939     02C8  0552               	andwf	___flmul@grs+2,w
  2940     02C9  00CB               	movwf	??___flmul+2
  2941     02CA  307F               	movlw	127
  2942     02CB  0553               	andwf	___flmul@grs+3,w
  2943     02CC  00CC               	movwf	??___flmul+3
  2944     02CD  084C               	movf	??___flmul+3,w
  2945     02CE  044B               	iorwf	??___flmul+2,w
  2946     02CF  044A               	iorwf	??___flmul+1,w
  2947     02D0  0449               	iorwf	??___flmul,w
  2948     02D1  1903               	skipnz
  2949     02D2  2AD4               	goto	u2841
  2950     02D3  2AD5               	goto	u2840
  2951     02D4                     u2841:
  2952     02D4  2AD8               	goto	l616
  2953     02D5                     u2840:
  2954     02D5                     l2065:
  2955     02D5  01CF               	clrf	___flmul@aexp
  2956     02D6  0ACF               	incf	___flmul@aexp,f
  2957     02D7  2ADD               	goto	l2069
  2958     02D8                     l616:
  2959     02D8  1C55               	btfss	___flmul@prod,0
  2960     02D9  2ADB               	goto	u2851
  2961     02DA  2ADC               	goto	u2850
  2962     02DB                     u2851:
  2963     02DB  2ADD               	goto	l2069
  2964     02DC                     u2850:
  2965     02DC  2AD5               	goto	l2065
  2966     02DD                     l2069:
  2967     02DD  084F               	movf	___flmul@aexp,w
  2968     02DE  1903               	btfsc	3,2
  2969     02DF  2AE1               	goto	u2861
  2970     02E0  2AE2               	goto	u2860
  2971     02E1                     u2861:
  2972     02E1  2B13               	goto	l2079
  2973     02E2                     u2860:
  2974     02E2                     l2071:
  2975     02E2  3001               	movlw	1
  2976     02E3  07D5               	addwf	___flmul@prod,f
  2977     02E4  3000               	movlw	0
  2978     02E5  1803               	skipnc
  2979     02E6  3001               	movlw	1
  2980     02E7  07D6               	addwf	___flmul@prod+1,f
  2981     02E8  3000               	movlw	0
  2982     02E9  1803               	skipnc
  2983     02EA  3001               	movlw	1
  2984     02EB  07D7               	addwf	___flmul@prod+2,f
  2985     02EC  3000               	movlw	0
  2986     02ED  1803               	skipnc
  2987     02EE  3001               	movlw	1
  2988     02EF  07D8               	addwf	___flmul@prod+3,f
  2989     02F0                     l2073:
  2990     02F0  1C58               	btfss	___flmul@prod+3,0
  2991     02F1  2AF3               	goto	u2871
  2992     02F2  2AF4               	goto	u2870
  2993     02F3                     u2871:
  2994     02F3  2B13               	goto	l2079
  2995     02F4                     u2870:
  2996     02F4                     l2075:
  2997     02F4  0855               	movf	___flmul@prod,w
  2998     02F5  00C9               	movwf	??___flmul
  2999     02F6  0856               	movf	___flmul@prod+1,w
  3000     02F7  00CA               	movwf	??___flmul+1
  3001     02F8  0857               	movf	___flmul@prod+2,w
  3002     02F9  00CB               	movwf	??___flmul+2
  3003     02FA  0858               	movf	___flmul@prod+3,w
  3004     02FB  00CC               	movwf	??___flmul+3
  3005     02FC  3001               	movlw	1
  3006     02FD  00CD               	movwf	??___flmul+4
  3007     02FE                     u2885:
  3008     02FE  0D4C               	rlf	??___flmul+3,w
  3009     02FF  0CCC               	rrf	??___flmul+3,f
  3010     0300  0CCB               	rrf	??___flmul+2,f
  3011     0301  0CCA               	rrf	??___flmul+1,f
  3012     0302  0CC9               	rrf	??___flmul,f
  3013     0303                     u2880:
  3014     0303  0BCD               	decfsz	??___flmul+4,f
  3015     0304  2AFE               	goto	u2885
  3016     0305  084C               	movf	??___flmul+3,w
  3017     0306  00D8               	movwf	___flmul@prod+3
  3018     0307  084B               	movf	??___flmul+2,w
  3019     0308  00D7               	movwf	___flmul@prod+2
  3020     0309  084A               	movf	??___flmul+1,w
  3021     030A  00D6               	movwf	___flmul@prod+1
  3022     030B  0849               	movf	??___flmul,w
  3023     030C  00D5               	movwf	___flmul@prod
  3024     030D                     l2077:
  3025     030D  3001               	movlw	1
  3026     030E  07D9               	addwf	___flmul@temp,f
  3027     030F  1803               	skipnc
  3028     0310  0ADA               	incf	___flmul@temp+1,f
  3029     0311  3000               	movlw	0
  3030     0312  07DA               	addwf	___flmul@temp+1,f
  3031     0313                     l2079:
  3032     0313  085A               	movf	___flmul@temp+1,w
  3033     0314  3A80               	xorlw	128
  3034     0315  00FF               	movwf	btemp+1
  3035     0316  3080               	movlw	128
  3036     0317  027F               	subwf	btemp+1,w
  3037     0318  1D03               	skipz
  3038     0319  2B1C               	goto	u2895
  3039     031A  30FF               	movlw	255
  3040     031B  0259               	subwf	___flmul@temp,w
  3041     031C                     u2895:
  3042     031C  1C03               	skipc
  3043     031D  2B1F               	goto	u2891
  3044     031E  2B20               	goto	u2890
  3045     031F                     u2891:
  3046     031F  2B2B               	goto	l2083
  3047     0320                     u2890:
  3048     0320                     l2081:
  3049     0320  307F               	movlw	127
  3050     0321  1283               	bcf	3,5	;RP0=0, select bank0
  3051     0322  1303               	bcf	3,6	;RP1=0, select bank0
  3052     0323  00D8               	movwf	___flmul@prod+3
  3053     0324  3080               	movlw	128
  3054     0325  00D7               	movwf	___flmul@prod+2
  3055     0326  3000               	movlw	0
  3056     0327  00D6               	movwf	___flmul@prod+1
  3057     0328  3000               	movlw	0
  3058     0329  00D5               	movwf	___flmul@prod
  3059     032A  2B5C               	goto	l622
  3060     032B                     l2083:
  3061     032B  1283               	bcf	3,5	;RP0=0, select bank0
  3062     032C  1303               	bcf	3,6	;RP1=0, select bank0
  3063     032D  085A               	movf	___flmul@temp+1,w
  3064     032E  3A80               	xorlw	128
  3065     032F  00FF               	movwf	btemp+1
  3066     0330  3080               	movlw	128
  3067     0331  027F               	subwf	btemp+1,w
  3068     0332  1D03               	skipz
  3069     0333  2B36               	goto	u2905
  3070     0334  3001               	movlw	1
  3071     0335  0259               	subwf	___flmul@temp,w
  3072     0336                     u2905:
  3073     0336  1803               	skipnc
  3074     0337  2B39               	goto	u2901
  3075     0338  2B3A               	goto	u2900
  3076     0339                     u2901:
  3077     0339  2B46               	goto	l2089
  3078     033A                     u2900:
  3079     033A                     l2085:
  3080     033A  3000               	movlw	0
  3081     033B  1283               	bcf	3,5	;RP0=0, select bank0
  3082     033C  1303               	bcf	3,6	;RP1=0, select bank0
  3083     033D  00D8               	movwf	___flmul@prod+3
  3084     033E  3000               	movlw	0
  3085     033F  00D7               	movwf	___flmul@prod+2
  3086     0340  3000               	movlw	0
  3087     0341  00D6               	movwf	___flmul@prod+1
  3088     0342  3000               	movlw	0
  3089     0343  00D5               	movwf	___flmul@prod
  3090     0344                     l2087:
  3091     0344  01CE               	clrf	___flmul@sign
  3092     0345  2B5C               	goto	l622
  3093     0346                     l2089:
  3094     0346  1283               	bcf	3,5	;RP0=0, select bank0
  3095     0347  1303               	bcf	3,6	;RP1=0, select bank0
  3096     0348  0859               	movf	___flmul@temp,w
  3097     0349  00D4               	movwf	___flmul@bexp
  3098     034A  30FF               	movlw	255
  3099     034B  05D5               	andwf	___flmul@prod,f
  3100     034C  30FF               	movlw	255
  3101     034D  05D6               	andwf	___flmul@prod+1,f
  3102     034E  307F               	movlw	127
  3103     034F  05D7               	andwf	___flmul@prod+2,f
  3104     0350  3000               	movlw	0
  3105     0351  05D8               	andwf	___flmul@prod+3,f
  3106     0352                     l2091:
  3107     0352  1C54               	btfss	___flmul@bexp,0
  3108     0353  2B55               	goto	u2911
  3109     0354  2B56               	goto	u2910
  3110     0355                     u2911:
  3111     0355  2B57               	goto	l2095
  3112     0356                     u2910:
  3113     0356                     l2093:
  3114     0356  17D7               	bsf	___flmul@prod+2,7
  3115     0357                     l2095:
  3116     0357  0854               	movf	___flmul@bexp,w
  3117     0358  00C9               	movwf	??___flmul
  3118     0359  1003               	clrc
  3119     035A  0C49               	rrf	??___flmul,w
  3120     035B  00D8               	movwf	___flmul@prod+3
  3121     035C                     l622:
  3122     035C  084E               	movf	___flmul@sign,w
  3123     035D  00C9               	movwf	??___flmul
  3124     035E  0849               	movf	??___flmul,w
  3125     035F  04D8               	iorwf	___flmul@prod+3,f
  3126     0360                     l2097:
  3127     0360  0858               	movf	___flmul@prod+3,w
  3128     0361  00C4               	movwf	?___flmul+3
  3129     0362  0857               	movf	___flmul@prod+2,w
  3130     0363  00C3               	movwf	?___flmul+2
  3131     0364  0856               	movf	___flmul@prod+1,w
  3132     0365  00C2               	movwf	?___flmul+1
  3133     0366  0855               	movf	___flmul@prod,w
  3134     0367  00C1               	movwf	?___flmul
  3135     0368                     l610:
  3136     0368  0008               	return
  3137     0369                     __end_of___flmul:
  3138                           
  3139                           	psect	text10
  3140     0F0F                     __ptext10:	
  3141 ;; *************** function __Umul8_16 *****************
  3142 ;; Defined at:
  3143 ;;		line 4 in file "C:\Program Files\Microchip\xc8\v2.40\pic\sources\c90\common\Umul8_16.c"
  3144 ;; Parameters:    Size  Location     Type
  3145 ;;  multiplier      1    wreg     unsigned char 
  3146 ;;  multiplicand    1    4[COMMON] unsigned char 
  3147 ;; Auto vars:     Size  Location     Type
  3148 ;;  multiplier      1    6[BANK0 ] unsigned char 
  3149 ;;  word_mpld       2    4[BANK0 ] unsigned int 
  3150 ;;  product         2    2[BANK0 ] unsigned int 
  3151 ;; Return value:  Size  Location     Type
  3152 ;;                  2    4[COMMON] unsigned int 
  3153 ;; Registers used:
  3154 ;;		wreg, status,2, status,0
  3155 ;; Tracked objects:
  3156 ;;		On entry : 0/0
  3157 ;;		On exit  : 0/0
  3158 ;;		Unchanged: 0/0
  3159 ;; Data sizes:     COMMON   BANK0   BANK1   BANK3   BANK2
  3160 ;;      Params:         2       0       0       0       0
  3161 ;;      Locals:         0       5       0       0       0
  3162 ;;      Temps:          0       2       0       0       0
  3163 ;;      Totals:         2       7       0       0       0
  3164 ;;Total ram usage:        9 bytes
  3165 ;; Hardware stack levels used: 1
  3166 ;; Hardware stack levels required when called: 1
  3167 ;; This function calls:
  3168 ;;		Nothing
  3169 ;; This function is called by:
  3170 ;;		___flmul
  3171 ;; This function uses a non-reentrant model
  3172 ;;
  3173                           
  3174     0F0F                     __Umul8_16:	
  3175                           ;psect for function __Umul8_16
  3176                           
  3177                           
  3178                           ;incstack = 0
  3179                           ; Regs used in __Umul8_16: [wreg+status,2+status,0]
  3180                           ;__Umul8_16@multiplier stored from wreg
  3181     0F0F  1283               	bcf	3,5	;RP0=0, select bank0
  3182     0F10  1303               	bcf	3,6	;RP1=0, select bank0
  3183     0F11  00A6               	movwf	__Umul8_16@multiplier
  3184     0F12                     l1755:
  3185     0F12  01A2               	clrf	__Umul8_16@product
  3186     0F13  01A3               	clrf	__Umul8_16@product+1
  3187     0F14                     l1757:
  3188     0F14  0874               	movf	__Umul8_16@multiplicand,w
  3189     0F15  00A0               	movwf	??__Umul8_16
  3190     0F16  01A1               	clrf	??__Umul8_16+1
  3191     0F17  0820               	movf	??__Umul8_16,w
  3192     0F18  00A4               	movwf	__Umul8_16@word_mpld
  3193     0F19  0821               	movf	??__Umul8_16+1,w
  3194     0F1A  00A5               	movwf	__Umul8_16@word_mpld+1
  3195     0F1B                     l1759:
  3196     0F1B  1C26               	btfss	__Umul8_16@multiplier,0
  3197     0F1C  2F1E               	goto	u2091
  3198     0F1D  2F1F               	goto	u2090
  3199     0F1E                     u2091:
  3200     0F1E  2F25               	goto	l629
  3201     0F1F                     u2090:
  3202     0F1F                     l1761:
  3203     0F1F  0824               	movf	__Umul8_16@word_mpld,w
  3204     0F20  07A2               	addwf	__Umul8_16@product,f
  3205     0F21  1803               	skipnc
  3206     0F22  0AA3               	incf	__Umul8_16@product+1,f
  3207     0F23  0825               	movf	__Umul8_16@word_mpld+1,w
  3208     0F24  07A3               	addwf	__Umul8_16@product+1,f
  3209     0F25                     l629:
  3210     0F25  3001               	movlw	1
  3211     0F26                     u2105:
  3212     0F26  1003               	clrc
  3213     0F27  0DA4               	rlf	__Umul8_16@word_mpld,f
  3214     0F28  0DA5               	rlf	__Umul8_16@word_mpld+1,f
  3215     0F29  3EFF               	addlw	-1
  3216     0F2A  1D03               	skipz
  3217     0F2B  2F26               	goto	u2105
  3218     0F2C  1003               	clrc
  3219     0F2D  0CA6               	rrf	__Umul8_16@multiplier,f
  3220     0F2E                     l1763:
  3221     0F2E  0826               	movf	__Umul8_16@multiplier,w
  3222     0F2F  1D03               	btfss	3,2
  3223     0F30  2F32               	goto	u2111
  3224     0F31  2F33               	goto	u2110
  3225     0F32                     u2111:
  3226     0F32  2F1B               	goto	l1759
  3227     0F33                     u2110:
  3228     0F33                     l1765:
  3229     0F33  0823               	movf	__Umul8_16@product+1,w
  3230     0F34  00F5               	movwf	?__Umul8_16+1
  3231     0F35  0822               	movf	__Umul8_16@product,w
  3232     0F36  00F4               	movwf	?__Umul8_16
  3233     0F37                     l631:
  3234     0F37  0008               	return
  3235     0F38                     __end_of__Umul8_16:
  3236                           
  3237                           	psect	text11
  3238     0369                     __ptext11:	
  3239 ;; *************** function ___fldiv *****************
  3240 ;; Defined at:
  3241 ;;		line 8 in file "C:\Program Files\Microchip\xc8\v2.40\pic\sources\c90\common\sprcdiv.c"
  3242 ;; Parameters:    Size  Location     Type
  3243 ;;  a               4    7[BANK0 ] unsigned int 
  3244 ;;  b               4   11[BANK0 ] unsigned int 
  3245 ;; Auto vars:     Size  Location     Type
  3246 ;;  grs             4   27[BANK0 ] unsigned long 
  3247 ;;  rem             4   20[BANK0 ] unsigned long 
  3248 ;;  new_exp         2   25[BANK0 ] int 
  3249 ;;  aexp            1   32[BANK0 ] unsigned char 
  3250 ;;  bexp            1   31[BANK0 ] unsigned char 
  3251 ;;  sign            1   24[BANK0 ] unsigned char 
  3252 ;; Return value:  Size  Location     Type
  3253 ;;                  4    7[BANK0 ] unsigned char 
  3254 ;; Registers used:
  3255 ;;		wreg, status,2, status,0, btemp+1
  3256 ;; Tracked objects:
  3257 ;;		On entry : 0/0
  3258 ;;		On exit  : 0/0
  3259 ;;		Unchanged: 0/0
  3260 ;; Data sizes:     COMMON   BANK0   BANK1   BANK3   BANK2
  3261 ;;      Params:         0       8       0       0       0
  3262 ;;      Locals:         0      13       0       0       0
  3263 ;;      Temps:          0       5       0       0       0
  3264 ;;      Totals:         0      26       0       0       0
  3265 ;;Total ram usage:       26 bytes
  3266 ;; Hardware stack levels used: 1
  3267 ;; Hardware stack levels required when called: 1
  3268 ;; This function calls:
  3269 ;;		Nothing
  3270 ;; This function is called by:
  3271 ;;		_PWM_config
  3272 ;; This function uses a non-reentrant model
  3273 ;;
  3274                           
  3275     0369                     ___fldiv:	
  3276                           ;psect for function ___fldiv
  3277                           
  3278     0369                     l1819:	
  3279                           ;incstack = 0
  3280                           ; Regs used in ___fldiv: [wreg+status,2+status,0+btemp+1]
  3281                           
  3282     0369  1283               	bcf	3,5	;RP0=0, select bank0
  3283     036A  1303               	bcf	3,6	;RP1=0, select bank0
  3284     036B  082E               	movf	___fldiv@b+3,w
  3285     036C  3980               	andlw	128
  3286     036D  00B8               	movwf	___fldiv@sign
  3287     036E                     l1821:
  3288     036E  082E               	movf	___fldiv@b+3,w
  3289     036F  00AF               	movwf	??___fldiv
  3290     0370  072F               	addwf	??___fldiv,w
  3291     0371  00BF               	movwf	___fldiv@bexp
  3292     0372                     l1823:
  3293     0372  1FAD               	btfss	___fldiv@b+2,7
  3294     0373  2B75               	goto	u2261
  3295     0374  2B76               	goto	u2260
  3296     0375                     u2261:
  3297     0375  2B77               	goto	l1827
  3298     0376                     u2260:
  3299     0376                     l1825:
  3300     0376  143F               	bsf	___fldiv@bexp,0
  3301     0377                     l1827:
  3302     0377  083F               	movf	___fldiv@bexp,w
  3303     0378  1903               	btfsc	3,2
  3304     0379  2B7B               	goto	u2271
  3305     037A  2B7C               	goto	u2270
  3306     037B                     u2271:
  3307     037B  2B8C               	goto	l1837
  3308     037C                     u2270:
  3309     037C                     l1829:
  3310     037C  0A3F               	incf	___fldiv@bexp,w
  3311     037D  1D03               	btfss	3,2
  3312     037E  2B80               	goto	u2281
  3313     037F  2B81               	goto	u2280
  3314     0380                     u2281:
  3315     0380  2B89               	goto	l1833
  3316     0381                     u2280:
  3317     0381                     l1831:
  3318     0381  3000               	movlw	0
  3319     0382  00AE               	movwf	___fldiv@b+3
  3320     0383  3000               	movlw	0
  3321     0384  00AD               	movwf	___fldiv@b+2
  3322     0385  3000               	movlw	0
  3323     0386  00AC               	movwf	___fldiv@b+1
  3324     0387  3000               	movlw	0
  3325     0388  00AB               	movwf	___fldiv@b
  3326     0389                     l1833:
  3327     0389  17AD               	bsf	___fldiv@b+2,7
  3328     038A                     l1835:
  3329     038A  01AE               	clrf	___fldiv@b+3
  3330     038B  2B94               	goto	l1839
  3331     038C                     l1837:
  3332     038C  3000               	movlw	0
  3333     038D  00AE               	movwf	___fldiv@b+3
  3334     038E  3000               	movlw	0
  3335     038F  00AD               	movwf	___fldiv@b+2
  3336     0390  3000               	movlw	0
  3337     0391  00AC               	movwf	___fldiv@b+1
  3338     0392  3000               	movlw	0
  3339     0393  00AB               	movwf	___fldiv@b
  3340     0394                     l1839:
  3341     0394  082A               	movf	___fldiv@a+3,w
  3342     0395  3980               	andlw	128
  3343     0396  00AF               	movwf	??___fldiv
  3344     0397  082F               	movf	??___fldiv,w
  3345     0398  06B8               	xorwf	___fldiv@sign,f
  3346     0399                     l1841:
  3347     0399  082A               	movf	___fldiv@a+3,w
  3348     039A  00AF               	movwf	??___fldiv
  3349     039B  072F               	addwf	??___fldiv,w
  3350     039C  00C0               	movwf	___fldiv@aexp
  3351     039D                     l1843:
  3352     039D  1FA9               	btfss	___fldiv@a+2,7
  3353     039E  2BA0               	goto	u2291
  3354     039F  2BA1               	goto	u2290
  3355     03A0                     u2291:
  3356     03A0  2BA2               	goto	l1847
  3357     03A1                     u2290:
  3358     03A1                     l1845:
  3359     03A1  1440               	bsf	___fldiv@aexp,0
  3360     03A2                     l1847:
  3361     03A2  0840               	movf	___fldiv@aexp,w
  3362     03A3  1903               	btfsc	3,2
  3363     03A4  2BA6               	goto	u2301
  3364     03A5  2BA7               	goto	u2300
  3365     03A6                     u2301:
  3366     03A6  2BB7               	goto	l1857
  3367     03A7                     u2300:
  3368     03A7                     l1849:
  3369     03A7  0A40               	incf	___fldiv@aexp,w
  3370     03A8  1D03               	btfss	3,2
  3371     03A9  2BAB               	goto	u2311
  3372     03AA  2BAC               	goto	u2310
  3373     03AB                     u2311:
  3374     03AB  2BB4               	goto	l1853
  3375     03AC                     u2310:
  3376     03AC                     l1851:
  3377     03AC  3000               	movlw	0
  3378     03AD  00AA               	movwf	___fldiv@a+3
  3379     03AE  3000               	movlw	0
  3380     03AF  00A9               	movwf	___fldiv@a+2
  3381     03B0  3000               	movlw	0
  3382     03B1  00A8               	movwf	___fldiv@a+1
  3383     03B2  3000               	movlw	0
  3384     03B3  00A7               	movwf	___fldiv@a
  3385     03B4                     l1853:
  3386     03B4  17A9               	bsf	___fldiv@a+2,7
  3387     03B5                     l1855:
  3388     03B5  01AA               	clrf	___fldiv@a+3
  3389     03B6  2BBF               	goto	l570
  3390     03B7                     l1857:
  3391     03B7  3000               	movlw	0
  3392     03B8  00AA               	movwf	___fldiv@a+3
  3393     03B9  3000               	movlw	0
  3394     03BA  00A9               	movwf	___fldiv@a+2
  3395     03BB  3000               	movlw	0
  3396     03BC  00A8               	movwf	___fldiv@a+1
  3397     03BD  3000               	movlw	0
  3398     03BE  00A7               	movwf	___fldiv@a
  3399     03BF                     l570:
  3400     03BF  082A               	movf	___fldiv@a+3,w
  3401     03C0  0429               	iorwf	___fldiv@a+2,w
  3402     03C1  0428               	iorwf	___fldiv@a+1,w
  3403     03C2  0427               	iorwf	___fldiv@a,w
  3404     03C3  1D03               	skipz
  3405     03C4  2BC6               	goto	u2321
  3406     03C5  2BC7               	goto	u2320
  3407     03C6                     u2321:
  3408     03C6  2BE0               	goto	l1867
  3409     03C7                     u2320:
  3410     03C7                     l1859:
  3411     03C7  3000               	movlw	0
  3412     03C8  00AE               	movwf	___fldiv@b+3
  3413     03C9  3000               	movlw	0
  3414     03CA  00AD               	movwf	___fldiv@b+2
  3415     03CB  3000               	movlw	0
  3416     03CC  00AC               	movwf	___fldiv@b+1
  3417     03CD  3000               	movlw	0
  3418     03CE  00AB               	movwf	___fldiv@b
  3419     03CF  3080               	movlw	128
  3420     03D0  04AD               	iorwf	___fldiv@b+2,f
  3421     03D1  307F               	movlw	127
  3422     03D2  04AE               	iorwf	___fldiv@b+3,f
  3423     03D3                     l1861:
  3424     03D3  0838               	movf	___fldiv@sign,w
  3425     03D4  00AF               	movwf	??___fldiv
  3426     03D5  082F               	movf	??___fldiv,w
  3427     03D6  04AE               	iorwf	___fldiv@b+3,f
  3428     03D7                     l1863:
  3429     03D7  082E               	movf	___fldiv@b+3,w
  3430     03D8  00AA               	movwf	?___fldiv+3
  3431     03D9  082D               	movf	___fldiv@b+2,w
  3432     03DA  00A9               	movwf	?___fldiv+2
  3433     03DB  082C               	movf	___fldiv@b+1,w
  3434     03DC  00A8               	movwf	?___fldiv+1
  3435     03DD  082B               	movf	___fldiv@b,w
  3436     03DE  00A7               	movwf	?___fldiv
  3437     03DF  2D3B               	goto	l572
  3438     03E0                     l1867:
  3439     03E0  083F               	movf	___fldiv@bexp,w
  3440     03E1  1D03               	btfss	3,2
  3441     03E2  2BE4               	goto	u2331
  3442     03E3  2BE5               	goto	u2330
  3443     03E4                     u2331:
  3444     03E4  2BEE               	goto	l1873
  3445     03E5                     u2330:
  3446     03E5                     l1869:
  3447     03E5  3000               	movlw	0
  3448     03E6  00AA               	movwf	?___fldiv+3
  3449     03E7  3000               	movlw	0
  3450     03E8  00A9               	movwf	?___fldiv+2
  3451     03E9  3000               	movlw	0
  3452     03EA  00A8               	movwf	?___fldiv+1
  3453     03EB  3000               	movlw	0
  3454     03EC  00A7               	movwf	?___fldiv
  3455     03ED  2D3B               	goto	l572
  3456     03EE                     l1873:
  3457     03EE  083F               	movf	___fldiv@bexp,w
  3458     03EF  00AF               	movwf	??___fldiv
  3459     03F0  01B0               	clrf	??___fldiv+1
  3460     03F1  0830               	movf	??___fldiv+1,w
  3461     03F2  00B2               	movwf	??___fldiv+3
  3462     03F3  0840               	movf	___fldiv@aexp,w
  3463     03F4  022F               	subwf	??___fldiv,w
  3464     03F5  00B1               	movwf	??___fldiv+2
  3465     03F6  1C03               	skipc
  3466     03F7  03B2               	decf	??___fldiv+3,f
  3467     03F8  0831               	movf	??___fldiv+2,w
  3468     03F9  3E7F               	addlw	127
  3469     03FA  00B9               	movwf	___fldiv@new_exp
  3470     03FB  0832               	movf	??___fldiv+3,w
  3471     03FC  1803               	skipnc
  3472     03FD  3E01               	addlw	1
  3473     03FE  3E00               	addlw	0
  3474     03FF  00BA               	movwf	___fldiv@new_exp+1
  3475     0400                     l1875:
  3476     0400  082E               	movf	___fldiv@b+3,w
  3477     0401  00B7               	movwf	___fldiv@rem+3
  3478     0402  082D               	movf	___fldiv@b+2,w
  3479     0403  00B6               	movwf	___fldiv@rem+2
  3480     0404  082C               	movf	___fldiv@b+1,w
  3481     0405  00B5               	movwf	___fldiv@rem+1
  3482     0406  082B               	movf	___fldiv@b,w
  3483     0407  00B4               	movwf	___fldiv@rem
  3484     0408                     l1877:
  3485     0408  3000               	movlw	0
  3486     0409  00AE               	movwf	___fldiv@b+3
  3487     040A  3000               	movlw	0
  3488     040B  00AD               	movwf	___fldiv@b+2
  3489     040C  3000               	movlw	0
  3490     040D  00AC               	movwf	___fldiv@b+1
  3491     040E  3000               	movlw	0
  3492     040F  00AB               	movwf	___fldiv@b
  3493     0410                     l1879:
  3494     0410  3000               	movlw	0
  3495     0411  00BE               	movwf	___fldiv@grs+3
  3496     0412  3000               	movlw	0
  3497     0413  00BD               	movwf	___fldiv@grs+2
  3498     0414  3000               	movlw	0
  3499     0415  00BC               	movwf	___fldiv@grs+1
  3500     0416  3000               	movlw	0
  3501     0417  00BB               	movwf	___fldiv@grs
  3502     0418                     l1881:
  3503     0418  01C0               	clrf	___fldiv@aexp
  3504     0419  2C64               	goto	l1901
  3505     041A                     l1883:
  3506     041A  0840               	movf	___fldiv@aexp,w
  3507     041B  1903               	btfsc	3,2
  3508     041C  2C1E               	goto	u2341
  3509     041D  2C1F               	goto	u2340
  3510     041E                     u2341:
  3511     041E  2C3F               	goto	l1893
  3512     041F                     u2340:
  3513     041F                     l1885:
  3514     041F  3001               	movlw	1
  3515     0420  00AF               	movwf	??___fldiv
  3516     0421                     u2355:
  3517     0421  1003               	clrc
  3518     0422  0DB4               	rlf	___fldiv@rem,f
  3519     0423  0DB5               	rlf	___fldiv@rem+1,f
  3520     0424  0DB6               	rlf	___fldiv@rem+2,f
  3521     0425  0DB7               	rlf	___fldiv@rem+3,f
  3522     0426  0BAF               	decfsz	??___fldiv,f
  3523     0427  2C21               	goto	u2355
  3524     0428  3001               	movlw	1
  3525     0429  00AF               	movwf	??___fldiv
  3526     042A                     u2365:
  3527     042A  1003               	clrc
  3528     042B  0DAB               	rlf	___fldiv@b,f
  3529     042C  0DAC               	rlf	___fldiv@b+1,f
  3530     042D  0DAD               	rlf	___fldiv@b+2,f
  3531     042E  0DAE               	rlf	___fldiv@b+3,f
  3532     042F  0BAF               	decfsz	??___fldiv,f
  3533     0430  2C2A               	goto	u2365
  3534     0431                     l1887:
  3535     0431  1FBE               	btfss	___fldiv@grs+3,7
  3536     0432  2C34               	goto	u2371
  3537     0433  2C35               	goto	u2370
  3538     0434                     u2371:
  3539     0434  2C36               	goto	l1891
  3540     0435                     u2370:
  3541     0435                     l1889:
  3542     0435  142B               	bsf	___fldiv@b,0
  3543     0436                     l1891:
  3544     0436  3001               	movlw	1
  3545     0437  00AF               	movwf	??___fldiv
  3546     0438                     u2385:
  3547     0438  1003               	clrc
  3548     0439  0DBB               	rlf	___fldiv@grs,f
  3549     043A  0DBC               	rlf	___fldiv@grs+1,f
  3550     043B  0DBD               	rlf	___fldiv@grs+2,f
  3551     043C  0DBE               	rlf	___fldiv@grs+3,f
  3552     043D  0BAF               	decfsz	??___fldiv,f
  3553     043E  2C38               	goto	u2385
  3554     043F                     l1893:
  3555     043F  082A               	movf	___fldiv@a+3,w
  3556     0440  0237               	subwf	___fldiv@rem+3,w
  3557     0441  1D03               	skipz
  3558     0442  2C4D               	goto	u2395
  3559     0443  0829               	movf	___fldiv@a+2,w
  3560     0444  0236               	subwf	___fldiv@rem+2,w
  3561     0445  1D03               	skipz
  3562     0446  2C4D               	goto	u2395
  3563     0447  0828               	movf	___fldiv@a+1,w
  3564     0448  0235               	subwf	___fldiv@rem+1,w
  3565     0449  1D03               	skipz
  3566     044A  2C4D               	goto	u2395
  3567     044B  0827               	movf	___fldiv@a,w
  3568     044C  0234               	subwf	___fldiv@rem,w
  3569     044D                     u2395:
  3570     044D  1C03               	skipc
  3571     044E  2C50               	goto	u2391
  3572     044F  2C51               	goto	u2390
  3573     0450                     u2391:
  3574     0450  2C60               	goto	l1899
  3575     0451                     u2390:
  3576     0451                     l1895:
  3577     0451  173E               	bsf	___fldiv@grs+3,6
  3578     0452                     l1897:
  3579     0452  0827               	movf	___fldiv@a,w
  3580     0453  02B4               	subwf	___fldiv@rem,f
  3581     0454  0828               	movf	___fldiv@a+1,w
  3582     0455  1C03               	skipc
  3583     0456  0F28               	incfsz	___fldiv@a+1,w
  3584     0457  02B5               	subwf	___fldiv@rem+1,f
  3585     0458  0829               	movf	___fldiv@a+2,w
  3586     0459  1C03               	skipc
  3587     045A  0F29               	incfsz	___fldiv@a+2,w
  3588     045B  02B6               	subwf	___fldiv@rem+2,f
  3589     045C  082A               	movf	___fldiv@a+3,w
  3590     045D  1C03               	skipc
  3591     045E  0F2A               	incfsz	___fldiv@a+3,w
  3592     045F  02B7               	subwf	___fldiv@rem+3,f
  3593     0460                     l1899:
  3594     0460  3001               	movlw	1
  3595     0461  00AF               	movwf	??___fldiv
  3596     0462  082F               	movf	??___fldiv,w
  3597     0463  07C0               	addwf	___fldiv@aexp,f
  3598     0464                     l1901:
  3599     0464  301A               	movlw	26
  3600     0465  0240               	subwf	___fldiv@aexp,w
  3601     0466  1C03               	skipc
  3602     0467  2C69               	goto	u2401
  3603     0468  2C6A               	goto	u2400
  3604     0469                     u2401:
  3605     0469  2C1A               	goto	l1883
  3606     046A                     u2400:
  3607     046A                     l1903:
  3608     046A  0837               	movf	___fldiv@rem+3,w
  3609     046B  0436               	iorwf	___fldiv@rem+2,w
  3610     046C  0435               	iorwf	___fldiv@rem+1,w
  3611     046D  0434               	iorwf	___fldiv@rem,w
  3612     046E  1903               	skipnz
  3613     046F  2C71               	goto	u2411
  3614     0470  2C72               	goto	u2410
  3615     0471                     u2411:
  3616     0471  2C91               	goto	l1917
  3617     0472                     u2410:
  3618     0472                     l1905:
  3619     0472  143B               	bsf	___fldiv@grs,0
  3620     0473  2C91               	goto	l1917
  3621     0474                     l1907:
  3622     0474  3001               	movlw	1
  3623     0475  00AF               	movwf	??___fldiv
  3624     0476                     u2425:
  3625     0476  1003               	clrc
  3626     0477  0DAB               	rlf	___fldiv@b,f
  3627     0478  0DAC               	rlf	___fldiv@b+1,f
  3628     0479  0DAD               	rlf	___fldiv@b+2,f
  3629     047A  0DAE               	rlf	___fldiv@b+3,f
  3630     047B  0BAF               	decfsz	??___fldiv,f
  3631     047C  2C76               	goto	u2425
  3632     047D                     l1909:
  3633     047D  1FBE               	btfss	___fldiv@grs+3,7
  3634     047E  2C80               	goto	u2431
  3635     047F  2C81               	goto	u2430
  3636     0480                     u2431:
  3637     0480  2C82               	goto	l1913
  3638     0481                     u2430:
  3639     0481                     l1911:
  3640     0481  142B               	bsf	___fldiv@b,0
  3641     0482                     l1913:
  3642     0482  3001               	movlw	1
  3643     0483  00AF               	movwf	??___fldiv
  3644     0484                     u2445:
  3645     0484  1003               	clrc
  3646     0485  0DBB               	rlf	___fldiv@grs,f
  3647     0486  0DBC               	rlf	___fldiv@grs+1,f
  3648     0487  0DBD               	rlf	___fldiv@grs+2,f
  3649     0488  0DBE               	rlf	___fldiv@grs+3,f
  3650     0489  0BAF               	decfsz	??___fldiv,f
  3651     048A  2C84               	goto	u2445
  3652     048B                     l1915:
  3653     048B  30FF               	movlw	255
  3654     048C  07B9               	addwf	___fldiv@new_exp,f
  3655     048D  1803               	skipnc
  3656     048E  0ABA               	incf	___fldiv@new_exp+1,f
  3657     048F  30FF               	movlw	255
  3658     0490  07BA               	addwf	___fldiv@new_exp+1,f
  3659     0491                     l1917:
  3660     0491  1FAD               	btfss	___fldiv@b+2,7
  3661     0492  2C94               	goto	u2451
  3662     0493  2C95               	goto	u2450
  3663     0494                     u2451:
  3664     0494  2C74               	goto	l1907
  3665     0495                     u2450:
  3666     0495                     l1919:
  3667     0495  01C0               	clrf	___fldiv@aexp
  3668     0496                     l1921:
  3669     0496  1FBE               	btfss	___fldiv@grs+3,7
  3670     0497  2C99               	goto	u2461
  3671     0498  2C9A               	goto	u2460
  3672     0499                     u2461:
  3673     0499  2CB6               	goto	l1929
  3674     049A                     u2460:
  3675     049A                     l1923:
  3676     049A  30FF               	movlw	255
  3677     049B  053B               	andwf	___fldiv@grs,w
  3678     049C  00AF               	movwf	??___fldiv
  3679     049D  30FF               	movlw	255
  3680     049E  053C               	andwf	___fldiv@grs+1,w
  3681     049F  00B0               	movwf	??___fldiv+1
  3682     04A0  30FF               	movlw	255
  3683     04A1  053D               	andwf	___fldiv@grs+2,w
  3684     04A2  00B1               	movwf	??___fldiv+2
  3685     04A3  307F               	movlw	127
  3686     04A4  053E               	andwf	___fldiv@grs+3,w
  3687     04A5  00B2               	movwf	??___fldiv+3
  3688     04A6  0832               	movf	??___fldiv+3,w
  3689     04A7  0431               	iorwf	??___fldiv+2,w
  3690     04A8  0430               	iorwf	??___fldiv+1,w
  3691     04A9  042F               	iorwf	??___fldiv,w
  3692     04AA  1903               	skipnz
  3693     04AB  2CAD               	goto	u2471
  3694     04AC  2CAE               	goto	u2470
  3695     04AD                     u2471:
  3696     04AD  2CB1               	goto	l586
  3697     04AE                     u2470:
  3698     04AE                     l1925:
  3699     04AE  01C0               	clrf	___fldiv@aexp
  3700     04AF  0AC0               	incf	___fldiv@aexp,f
  3701     04B0  2CB6               	goto	l1929
  3702     04B1                     l586:
  3703     04B1  1C2B               	btfss	___fldiv@b,0
  3704     04B2  2CB4               	goto	u2481
  3705     04B3  2CB5               	goto	u2480
  3706     04B4                     u2481:
  3707     04B4  2CB6               	goto	l1929
  3708     04B5                     u2480:
  3709     04B5  2CAE               	goto	l1925
  3710     04B6                     l1929:
  3711     04B6  0840               	movf	___fldiv@aexp,w
  3712     04B7  1903               	btfsc	3,2
  3713     04B8  2CBA               	goto	u2491
  3714     04B9  2CBB               	goto	u2490
  3715     04BA                     u2491:
  3716     04BA  2CEC               	goto	l1939
  3717     04BB                     u2490:
  3718     04BB                     l1931:
  3719     04BB  3001               	movlw	1
  3720     04BC  07AB               	addwf	___fldiv@b,f
  3721     04BD  3000               	movlw	0
  3722     04BE  1803               	skipnc
  3723     04BF  3001               	movlw	1
  3724     04C0  07AC               	addwf	___fldiv@b+1,f
  3725     04C1  3000               	movlw	0
  3726     04C2  1803               	skipnc
  3727     04C3  3001               	movlw	1
  3728     04C4  07AD               	addwf	___fldiv@b+2,f
  3729     04C5  3000               	movlw	0
  3730     04C6  1803               	skipnc
  3731     04C7  3001               	movlw	1
  3732     04C8  07AE               	addwf	___fldiv@b+3,f
  3733     04C9                     l1933:
  3734     04C9  1C2E               	btfss	___fldiv@b+3,0
  3735     04CA  2CCC               	goto	u2501
  3736     04CB  2CCD               	goto	u2500
  3737     04CC                     u2501:
  3738     04CC  2CEC               	goto	l1939
  3739     04CD                     u2500:
  3740     04CD                     l1935:
  3741     04CD  082B               	movf	___fldiv@b,w
  3742     04CE  00AF               	movwf	??___fldiv
  3743     04CF  082C               	movf	___fldiv@b+1,w
  3744     04D0  00B0               	movwf	??___fldiv+1
  3745     04D1  082D               	movf	___fldiv@b+2,w
  3746     04D2  00B1               	movwf	??___fldiv+2
  3747     04D3  082E               	movf	___fldiv@b+3,w
  3748     04D4  00B2               	movwf	??___fldiv+3
  3749     04D5  3001               	movlw	1
  3750     04D6  00B3               	movwf	??___fldiv+4
  3751     04D7                     u2515:
  3752     04D7  0D32               	rlf	??___fldiv+3,w
  3753     04D8  0CB2               	rrf	??___fldiv+3,f
  3754     04D9  0CB1               	rrf	??___fldiv+2,f
  3755     04DA  0CB0               	rrf	??___fldiv+1,f
  3756     04DB  0CAF               	rrf	??___fldiv,f
  3757     04DC                     u2510:
  3758     04DC  0BB3               	decfsz	??___fldiv+4,f
  3759     04DD  2CD7               	goto	u2515
  3760     04DE  0832               	movf	??___fldiv+3,w
  3761     04DF  00AE               	movwf	___fldiv@b+3
  3762     04E0  0831               	movf	??___fldiv+2,w
  3763     04E1  00AD               	movwf	___fldiv@b+2
  3764     04E2  0830               	movf	??___fldiv+1,w
  3765     04E3  00AC               	movwf	___fldiv@b+1
  3766     04E4  082F               	movf	??___fldiv,w
  3767     04E5  00AB               	movwf	___fldiv@b
  3768     04E6                     l1937:
  3769     04E6  3001               	movlw	1
  3770     04E7  07B9               	addwf	___fldiv@new_exp,f
  3771     04E8  1803               	skipnc
  3772     04E9  0ABA               	incf	___fldiv@new_exp+1,f
  3773     04EA  3000               	movlw	0
  3774     04EB  07BA               	addwf	___fldiv@new_exp+1,f
  3775     04EC                     l1939:
  3776     04EC  083A               	movf	___fldiv@new_exp+1,w
  3777     04ED  3A80               	xorlw	128
  3778     04EE  00FF               	movwf	btemp+1
  3779     04EF  3080               	movlw	128
  3780     04F0  027F               	subwf	btemp+1,w
  3781     04F1  1D03               	skipz
  3782     04F2  2CF5               	goto	u2525
  3783     04F3  30FF               	movlw	255
  3784     04F4  0239               	subwf	___fldiv@new_exp,w
  3785     04F5                     u2525:
  3786     04F5  1C03               	skipc
  3787     04F6  2CF8               	goto	u2521
  3788     04F7  2CF9               	goto	u2520
  3789     04F8                     u2521:
  3790     04F8  2D07               	goto	l1943
  3791     04F9                     u2520:
  3792     04F9                     l1941:
  3793     04F9  30FF               	movlw	255
  3794     04FA  1283               	bcf	3,5	;RP0=0, select bank0
  3795     04FB  1303               	bcf	3,6	;RP1=0, select bank0
  3796     04FC  00B9               	movwf	___fldiv@new_exp
  3797     04FD  3000               	movlw	0
  3798     04FE  00BA               	movwf	___fldiv@new_exp+1
  3799     04FF  3000               	movlw	0
  3800     0500  00AE               	movwf	___fldiv@b+3
  3801     0501  3000               	movlw	0
  3802     0502  00AD               	movwf	___fldiv@b+2
  3803     0503  3000               	movlw	0
  3804     0504  00AC               	movwf	___fldiv@b+1
  3805     0505  3000               	movlw	0
  3806     0506  00AB               	movwf	___fldiv@b
  3807     0507                     l1943:
  3808     0507  1283               	bcf	3,5	;RP0=0, select bank0
  3809     0508  1303               	bcf	3,6	;RP1=0, select bank0
  3810     0509  083A               	movf	___fldiv@new_exp+1,w
  3811     050A  3A80               	xorlw	128
  3812     050B  00FF               	movwf	btemp+1
  3813     050C  3080               	movlw	128
  3814     050D  027F               	subwf	btemp+1,w
  3815     050E  1D03               	skipz
  3816     050F  2D12               	goto	u2535
  3817     0510  3001               	movlw	1
  3818     0511  0239               	subwf	___fldiv@new_exp,w
  3819     0512                     u2535:
  3820     0512  1803               	skipnc
  3821     0513  2D15               	goto	u2531
  3822     0514  2D16               	goto	u2530
  3823     0515                     u2531:
  3824     0515  2D23               	goto	l592
  3825     0516                     u2530:
  3826     0516                     l1945:
  3827     0516  1283               	bcf	3,5	;RP0=0, select bank0
  3828     0517  1303               	bcf	3,6	;RP1=0, select bank0
  3829     0518  01B9               	clrf	___fldiv@new_exp
  3830     0519  01BA               	clrf	___fldiv@new_exp+1
  3831     051A                     l1947:
  3832     051A  3000               	movlw	0
  3833     051B  00AE               	movwf	___fldiv@b+3
  3834     051C  3000               	movlw	0
  3835     051D  00AD               	movwf	___fldiv@b+2
  3836     051E  3000               	movlw	0
  3837     051F  00AC               	movwf	___fldiv@b+1
  3838     0520  3000               	movlw	0
  3839     0521  00AB               	movwf	___fldiv@b
  3840     0522                     l1949:
  3841     0522  01B8               	clrf	___fldiv@sign
  3842     0523                     l592:
  3843     0523  1283               	bcf	3,5	;RP0=0, select bank0
  3844     0524  1303               	bcf	3,6	;RP1=0, select bank0
  3845     0525  0839               	movf	___fldiv@new_exp,w
  3846     0526  00BF               	movwf	___fldiv@bexp
  3847     0527                     l1951:
  3848     0527  1C3F               	btfss	___fldiv@bexp,0
  3849     0528  2D2A               	goto	u2541
  3850     0529  2D2B               	goto	u2540
  3851     052A                     u2541:
  3852     052A  2D2D               	goto	l1955
  3853     052B                     u2540:
  3854     052B                     l1953:
  3855     052B  17AD               	bsf	___fldiv@b+2,7
  3856     052C  2D31               	goto	l594
  3857     052D                     l1955:
  3858     052D  307F               	movlw	127
  3859     052E  00AF               	movwf	??___fldiv
  3860     052F  082F               	movf	??___fldiv,w
  3861     0530  05AD               	andwf	___fldiv@b+2,f
  3862     0531                     l594:
  3863     0531  083F               	movf	___fldiv@bexp,w
  3864     0532  00AF               	movwf	??___fldiv
  3865     0533  1003               	clrc
  3866     0534  0C2F               	rrf	??___fldiv,w
  3867     0535  00AE               	movwf	___fldiv@b+3
  3868     0536  0838               	movf	___fldiv@sign,w
  3869     0537  00AF               	movwf	??___fldiv
  3870     0538  082F               	movf	??___fldiv,w
  3871     0539  04AE               	iorwf	___fldiv@b+3,f
  3872     053A  2BD7               	goto	l1863
  3873     053B                     l572:
  3874     053B  0008               	return
  3875     053C                     __end_of___fldiv:
  3876                           
  3877                           	psect	text12
  3878     0766                     __ptext12:	
  3879 ;; *************** function _isr *****************
  3880 ;; Defined at:
  3881 ;;		line 55 in file "Postlab_07.c"
  3882 ;; Parameters:    Size  Location     Type
  3883 ;;		None
  3884 ;; Auto vars:     Size  Location     Type
  3885 ;;		None
  3886 ;; Return value:  Size  Location     Type
  3887 ;;                  1    wreg      void 
  3888 ;; Registers used:
  3889 ;;		wreg, status,2, status,0
  3890 ;; Tracked objects:
  3891 ;;		On entry : 0/0
  3892 ;;		On exit  : 0/0
  3893 ;;		Unchanged: 0/0
  3894 ;; Data sizes:     COMMON   BANK0   BANK1   BANK3   BANK2
  3895 ;;      Params:         0       0       0       0       0
  3896 ;;      Locals:         0       0       0       0       0
  3897 ;;      Temps:          4       0       0       0       0
  3898 ;;      Totals:         4       0       0       0       0
  3899 ;;Total ram usage:        4 bytes
  3900 ;; Hardware stack levels used: 1
  3901 ;; This function calls:
  3902 ;;		Nothing
  3903 ;; This function is called by:
  3904 ;;		Interrupt level 1
  3905 ;; This function uses a non-reentrant model
  3906 ;;
  3907                           
  3908     0766                     _isr:	
  3909                           ;psect for function _isr
  3910                           
  3911     0766                     i1l1713:
  3912                           
  3913                           ;Postlab_07.c: 57:     if(T0IF)
  3914     0766  1D0B               	btfss	11,2	;volatile
  3915     0767  2F69               	goto	u203_21
  3916     0768  2F6A               	goto	u203_20
  3917     0769                     u203_21:
  3918     0769  2F73               	goto	i1l1721
  3919     076A                     u203_20:
  3920     076A                     i1l1715:
  3921                           
  3922                           ;Postlab_07.c: 58:     {;Postlab_07.c: 59:         ondaPWM ++;
  3923     076A  3001               	movlw	1
  3924     076B  00F0               	movwf	??_isr
  3925     076C  0870               	movf	??_isr,w
  3926     076D  1283               	bcf	3,5	;RP0=0, select bank0
  3927     076E  1303               	bcf	3,6	;RP1=0, select bank0
  3928     076F  07ED               	addwf	_ondaPWM,f
  3929     0770                     i1l1717:
  3930                           
  3931                           ;Postlab_07.c: 60:         TMR0 = 50;
  3932     0770  3032               	movlw	50
  3933     0771  0081               	movwf	1	;volatile
  3934     0772                     i1l1719:
  3935                           
  3936                           ;Postlab_07.c: 61:         INTCONbits.T0IF = 0;
  3937     0772  110B               	bcf	11,2	;volatile
  3938     0773                     i1l1721:
  3939                           
  3940                           ;Postlab_07.c: 63:     if (ADIF)
  3941     0773  1283               	bcf	3,5	;RP0=0, select bank0
  3942     0774  1303               	bcf	3,6	;RP1=0, select bank0
  3943     0775  1F0C               	btfss	12,6	;volatile
  3944     0776  2F78               	goto	u204_21
  3945     0777  2F79               	goto	u204_20
  3946     0778                     u204_21:
  3947     0778  2FBA               	goto	i1l80
  3948     0779                     u204_20:
  3949     0779                     i1l1723:
  3950                           
  3951                           ;Postlab_07.c: 64:     {;Postlab_07.c: 65:         if (ADCON0bits.CHS == 0b0000) {
  3952     0779  0C1F               	rrf	31,w	;volatile
  3953     077A  00F0               	movwf	??_isr
  3954     077B  0C70               	rrf	??_isr,w
  3955     077C  390F               	andlw	15
  3956     077D  3A00               	xorlw	0
  3957     077E  1D03               	skipz
  3958     077F  2F81               	goto	u205_21
  3959     0780  2F82               	goto	u205_20
  3960     0781                     u205_21:
  3961     0781  2F8E               	goto	i1l1729
  3962     0782                     u205_20:
  3963     0782                     i1l1725:
  3964                           
  3965                           ;Postlab_07.c: 66:             adc0 = ADRESH;
  3966     0782  081E               	movf	30,w	;volatile
  3967     0783  00F0               	movwf	??_isr
  3968     0784  01F1               	clrf	??_isr+1
  3969     0785  0870               	movf	??_isr,w
  3970     0786  00F8               	movwf	_adc0
  3971     0787  0871               	movf	??_isr+1,w
  3972     0788  00F9               	movwf	_adc0+1
  3973     0789                     i1l1727:
  3974                           
  3975                           ;Postlab_07.c: 67:             ADCON0bits.CHS = 0b0001;
  3976     0789  081F               	movf	31,w	;volatile
  3977     078A  39C3               	andlw	-61
  3978     078B  3804               	iorlw	4
  3979     078C  009F               	movwf	31	;volatile
  3980                           
  3981                           ;Postlab_07.c: 68:         } else if (ADCON0bits.CHS == 0b0001){
  3982     078D  2FB9               	goto	i1l1741
  3983     078E                     i1l1729:
  3984     078E  0C1F               	rrf	31,w	;volatile
  3985     078F  00F0               	movwf	??_isr
  3986     0790  0C70               	rrf	??_isr,w
  3987     0791  390F               	andlw	15
  3988     0792  3A01               	xorlw	1
  3989     0793  1D03               	skipz
  3990     0794  2F96               	goto	u206_21
  3991     0795  2F97               	goto	u206_20
  3992     0796                     u206_21:
  3993     0796  2FA3               	goto	i1l1735
  3994     0797                     u206_20:
  3995     0797                     i1l1731:
  3996                           
  3997                           ;Postlab_07.c: 69:             adc1 = ADRESH;
  3998     0797  081E               	movf	30,w	;volatile
  3999     0798  00F0               	movwf	??_isr
  4000     0799  01F1               	clrf	??_isr+1
  4001     079A  0870               	movf	??_isr,w
  4002     079B  00F6               	movwf	_adc1
  4003     079C  0871               	movf	??_isr+1,w
  4004     079D  00F7               	movwf	_adc1+1
  4005     079E                     i1l1733:
  4006                           
  4007                           ;Postlab_07.c: 70:             ADCON0bits.CHS = 0b0010;
  4008     079E  081F               	movf	31,w	;volatile
  4009     079F  39C3               	andlw	-61
  4010     07A0  3808               	iorlw	8
  4011     07A1  009F               	movwf	31	;volatile
  4012                           
  4013                           ;Postlab_07.c: 71:         } else if (ADCON0bits.CHS == 0b0010){
  4014     07A2  2FB9               	goto	i1l1741
  4015     07A3                     i1l1735:
  4016     07A3  0C1F               	rrf	31,w	;volatile
  4017     07A4  00F0               	movwf	??_isr
  4018     07A5  0C70               	rrf	??_isr,w
  4019     07A6  390F               	andlw	15
  4020     07A7  3A02               	xorlw	2
  4021     07A8  1D03               	skipz
  4022     07A9  2FAB               	goto	u207_21
  4023     07AA  2FAC               	goto	u207_20
  4024     07AB                     u207_21:
  4025     07AB  2FB9               	goto	i1l1741
  4026     07AC                     u207_20:
  4027     07AC                     i1l1737:
  4028                           
  4029                           ;Postlab_07.c: 72:             adc2 = ADRESH;
  4030     07AC  081E               	movf	30,w	;volatile
  4031     07AD  00F0               	movwf	??_isr
  4032     07AE  01F1               	clrf	??_isr+1
  4033     07AF  0870               	movf	??_isr,w
  4034     07B0  1683               	bsf	3,5	;RP0=1, select bank1
  4035     07B1  1303               	bcf	3,6	;RP1=0, select bank1
  4036     07B2  00A6               	movwf	_adc2^(0+128)
  4037     07B3  0871               	movf	??_isr+1,w
  4038     07B4  00A7               	movwf	(_adc2+1)^(0+128)
  4039     07B5                     i1l1739:
  4040                           
  4041                           ;Postlab_07.c: 73:             ADCON0bits.CHS = 0b0000;
  4042     07B5  30C3               	movlw	-61
  4043     07B6  1283               	bcf	3,5	;RP0=0, select bank0
  4044     07B7  1303               	bcf	3,6	;RP1=0, select bank0
  4045     07B8  059F               	andwf	31,f	;volatile
  4046     07B9                     i1l1741:
  4047                           
  4048                           ;Postlab_07.c: 75:         PIR1bits.ADIF = 0;
  4049     07B9  130C               	bcf	12,6	;volatile
  4050     07BA                     i1l80:
  4051     07BA  0873               	movf	??_isr+3,w
  4052     07BB  008A               	movwf	10
  4053     07BC  0E72               	swapf	??_isr+2,w
  4054     07BD  0083               	movwf	3
  4055     07BE  0EFE               	swapf	btemp,f
  4056     07BF  0E7E               	swapf	btemp,w
  4057     07C0  0009               	retfie
  4058     07C1                     __end_of_isr:
  4059     007E                     btemp	set	126	;btemp
  4060     007E                     wtemp0	set	126
  4061                           
  4062                           	psect	intentry
  4063     0004                     __pintentry:	
  4064                           ;incstack = 0
  4065                           ; Regs used in _isr: [wreg+status,2+status,0]
  4066                           
  4067     0004                     interrupt_function:
  4068     007E                     saved_w	set	btemp
  4069     0004  00FE               	movwf	btemp
  4070     0005  0E03               	swapf	3,w
  4071     0006  00F2               	movwf	??_isr+2
  4072     0007  080A               	movf	10,w
  4073     0008  00F3               	movwf	??_isr+3
  4074     0009  120A  118A  2F66   	ljmp	_isr
  4075                           
  4076                           	psect	idloc
  4077                           
  4078                           ;Config register IDLOC0 @ 0x2000
  4079                           ;	unspecified, using default values
  4080     2000                     	org	8192
  4081     2000  3FFF               	dw	16383
  4082                           
  4083                           ;Config register IDLOC1 @ 0x2001
  4084                           ;	unspecified, using default values
  4085     2001                     	org	8193
  4086     2001  3FFF               	dw	16383
  4087                           
  4088                           ;Config register IDLOC2 @ 0x2002
  4089                           ;	unspecified, using default values
  4090     2002                     	org	8194
  4091     2002  3FFF               	dw	16383
  4092                           
  4093                           ;Config register IDLOC3 @ 0x2003
  4094                           ;	unspecified, using default values
  4095     2003                     	org	8195
  4096     2003  3FFF               	dw	16383
  4097                           
  4098                           	psect	config
  4099                           
  4100                           ;Config register CONFIG1 @ 0x2007
  4101                           ;	Oscillator Selection bits
  4102                           ;	FOSC = INTRC_NOCLKOUT, INTOSCIO oscillator: I/O function on RA6/OSC2/CLKOUT pin, I/O f
      +                          unction on RA7/OSC1/CLKIN
  4103                           ;	Watchdog Timer Enable bit
  4104                           ;	WDTE = OFF, WDT disabled and can be enabled by SWDTEN bit of the WDTCON register
  4105                           ;	Power-up Timer Enable bit
  4106                           ;	PWRTE = OFF, PWRT disabled
  4107                           ;	RE3/MCLR pin function select bit
  4108                           ;	MCLRE = OFF, RE3/MCLR pin function is digital input, MCLR internally tied to VDD
  4109                           ;	Code Protection bit
  4110                           ;	CP = OFF, Program memory code protection is disabled
  4111                           ;	Data Code Protection bit
  4112                           ;	CPD = OFF, Data memory code protection is disabled
  4113                           ;	Brown Out Reset Selection bits
  4114                           ;	BOREN = OFF, BOR disabled
  4115                           ;	Internal External Switchover bit
  4116                           ;	IESO = OFF, Internal/External Switchover mode is disabled
  4117                           ;	Fail-Safe Clock Monitor Enabled bit
  4118                           ;	FCMEN = OFF, Fail-Safe Clock Monitor is disabled
  4119                           ;	Low Voltage Programming Enable bit
  4120                           ;	LVP = OFF, RB3 pin has digital I/O, HV on MCLR must be used for programming
  4121                           ;	In-Circuit Debugger Mode bit
  4122                           ;	DEBUG = 0x1, unprogramme  4123     2007                     	org	8199
  4124     2007  20D4               	dw	8404
  4125                           
  4126                           ;Config register CONFIG2 @ 0x2008
  4127                           ;	Brown-out Reset Selection bit
  4128                           ;	BOR4V = BOR40V, Brown-out Reset set to 4.0V
  4129                           ;	Flash Program Memory Self Write Enable bits
  4130                           ;	WRT = OFF, Write protection off
  4131     2008                     	org	8200
  4132     2008  3FFF               	dw	16383

Data Sizes:
    Strings     0
    Constant    0
    Data        0
    BSS         13
    Persistent  0
    Stack       0

Auto Spaces:
    Space          Size  Autos    Used
    COMMON           14      6      10
    BANK0            80     77      78
    BANK1            80      6      14
    BANK3            96      0       0
    BANK2            96      0       0

Pointer List with Targets:

    None.

Critical Paths under _main in COMMON

    _main->_PWM_duty
    _map->___wmul
    ___lwdiv->___wmul
    ___flmul->__Umul8_16
    ___fldiv->__Umul8_16

Critical Paths under _isr in COMMON

    None.

Critical Paths under _main in BANK0

    _main->_PWM_config
    _map->___lwdiv
    ___lwdiv->___wmul
    _PWM_config->___fltol
    ___fltol->___flmul
    ___flmul->___fldiv
    ___fldiv->__Umul8_16

Critical Paths under _isr in BANK0

    None.

Critical Paths under _main in BANK1

    _main->_PWM_config

Critical Paths under _isr in BANK1

    None.

Critical Paths under _main in BANK3

    None.

Critical Paths under _isr in BANK3

    None.

Critical Paths under _main in BANK2

    None.

Critical Paths under _isr in BANK2

    None.

Call Graph Tables:

 ---------------------------------------------------------------------------------
 (Depth) Function   	        Calls       Base Space   Used Autos Params    Refs
 ---------------------------------------------------------------------------------
 (0) _main                                                 2     2      0    9515
                                             75 BANK0      2     2      0
                         _PWM_config
                           _PWM_duty
                         _PWM_manual
                                _map
                              _setup
 ---------------------------------------------------------------------------------
 (1) _setup                                                0     0      0       0
 ---------------------------------------------------------------------------------
 (1) _map                                                 12     2     10    2231
                                             12 BANK0     12     2     10
                            ___lwdiv
                             ___wmul
 ---------------------------------------------------------------------------------
 (2) ___wmul                                               6     2      4     316
                                              4 COMMON     2     2      0
                                              0 BANK0      4     0      4
 ---------------------------------------------------------------------------------
 (2) ___lwdiv                                              8     4      4     314
                                              4 BANK0      8     4      4
                             ___wmul (ARG)
 ---------------------------------------------------------------------------------
 (1) _PWM_manual                                           7     1      6     363
                                              4 COMMON     1     1      0
                                              0 BANK0      6     0      6
 ---------------------------------------------------------------------------------
 (1) _PWM_duty                                             6     2      4     546
                                              4 COMMON     2     2      0
                                              0 BANK0      4     0      4
 ---------------------------------------------------------------------------------
 (1) _PWM_config                                          12     6      6    6375
                                             69 BANK0      6     0      6
                                              0 BANK1      6     6      0
                            ___fldiv
                            ___flmul
                            ___fltol
 ---------------------------------------------------------------------------------
 (2) ___fltol                                             10     6      4     427
                                             59 BANK0     10     6      4
                            ___fldiv (ARG)
                            ___flmul (ARG)
 ---------------------------------------------------------------------------------
 (2) ___flmul                                             26    18      8    3353
                                             33 BANK0     26    18      8
                          __Umul8_16
                            ___fldiv (ARG)
 ---------------------------------------------------------------------------------
 (3) __Umul8_16                                            9     7      2     980
                                              4 COMMON     2     0      2
                                              0 BANK0      7     7      0
 ---------------------------------------------------------------------------------
 (2) ___fldiv                                             26    18      8    2043
                                              7 BANK0     26    18      8
                          __Umul8_16 (ARG)
 ---------------------------------------------------------------------------------
 Estimated maximum stack depth 3
 ---------------------------------------------------------------------------------
 (Depth) Function   	        Calls       Base Space   Used Autos Params    Refs
 ---------------------------------------------------------------------------------
 (4) _isr                                                  4     4      0       0
                                              0 COMMON     4     4      0
 ---------------------------------------------------------------------------------
 Estimated maximum stack depth 4
 ---------------------------------------------------------------------------------

 Call Graph Graphs:

 _main (ROOT)
   _PWM_config
     ___fldiv
       __Umul8_16 (ARG)
     ___flmul
       __Umul8_16
       ___fldiv (ARG)
     ___fltol
       ___fldiv (ARG)
       ___flmul (ARG)
   _PWM_duty
   _PWM_manual
   _map
     ___lwdiv
       ___wmul (ARG)
     ___wmul
   _setup

 _isr (ROOT)

 Address spaces:
Name               Size   Autos  Total    Cost      Usage
BITCOMMON            E      0       0       0        0.0%
EEDATA             100      0       0       0        0.0%
NULL                 0      0       0       0        0.0%
CODE                 0      0       0       0        0.0%
COMMON               E      6       A       1       71.4%
BITSFR0              0      0       0       1        0.0%
SFR0                 0      0       0       1        0.0%
BITSFR1              0      0       0       2        0.0%
SFR1                 0      0       0       2        0.0%
STACK                0      0       0       2        0.0%
ABS                  0      0      66       3        0.0%
BITBANK0            50      0       0       4        0.0%
BITSFR3              0      0       0       4        0.0%
SFR3                 0      0       0       4        0.0%
BANK0               50     4D      4E       5       97.5%
BITSFR2              0      0       0       5        0.0%
SFR2                 0      0       0       5        0.0%
BITBANK1            50      0       0       6        0.0%
BANK1               50      6       E       7       17.5%
BITBANK3            60      0       0       8        0.0%
BANK3               60      0       0       9        0.0%
BITBANK2            60      0       0      10        0.0%
BANK2               60      0       0      11        0.0%
DATA                 0      0      66      12        0.0%


Microchip Technology PIC Macro Assembler V2.40 build 20220703182018 
Symbol Table                                                                                   Wed Apr 12 22:28:47 2023

              ___fldiv@aexp 0040                ___fldiv@bexp 003F                ___fldiv@sign 0038  
                        l94 0F70                          l86 056A                          l88 056E  
                        l97 07FF         ___wmul@multiplicand 0022                map@rango_max 0030  
              map@rango_min 002E         __Umul8_16@word_mpld 0024                         l121 06E5  
                       l130 0FFF                         l123 06E9                         l124 06ED  
                       l221 0EF6                         l135 0EE7                         l223 0F0E  
                       l414 0750                         l407 0765                         l417 0765  
                       l610 0368                         l622 035C                         l631 0F37  
                       l616 02D8                         l570 03BF                         l572 053B  
                       l629 0F25                         l493 0FB6                         l592 0523  
                       l594 0531                         l586 04B1                         _PR2 0092  
                       _map 0F38                  _PWM_config 0634                         _isr 0766  
                _PWM_manual 0ECF                ___flmul@aexp 004F                ___flmul@bexp 0054  
              ___flmul@sign 004E                ___flmul@temp 0059                ___flmul@prod 0055  
              map@nuevo_max 0034                map@nuevo_min 0032                ___fltol@exp1 0064  
                      l2001 0082                        l2011 00C1                        l2021 0148  
                      l2013 00DD                        l2005 008B                        l2101 0634  
                      l2031 01B5                        l2023 0156                        l2015 0107  
                      l2007 0099                        l2111 06D7                        l2103 06BC  
                      l1311 0F7E                        l2041 025C                        l2033 01D2  
                      l2025 0173                        l2017 0123                        l2009 00A6  
                      l2113 06E1                        l2105 06C4                        l1321 0FA4  
                      l1313 0F85                        l1305 0F71                        l2051 02A8  
                      l2043 0284                        l2035 01FD                        l2027 0181  
                      l2019 013F                        l2115 06E2                        l2107 06CE  
                      l2131 0FBF                        l1323 0FA5                        l1315 0F89  
                      l1307 0F75                        l2123 0F38                        l2061 02BD  
                      l2053 02A9                        l2045 028D                        l2037 020B  
                      l2029 019E                        l2117 06E3                        l2109 06D0  
                      l2141 0FEF                        l2133 0FCB                        l1325 0FAC  
                      l1317 0F8D                        l1309 0F7B                        l2125 0F6C  
                      l2071 02E2                        l2063 02C1                        l2055 02B2  
                      l2047 029B                        l2039 0236                        l2119 06EA  
                      l2143 0FF2                        l2135 0FCE                        l2151 0EE4  
                      l1319 0F9E                        l1327 0FB2                        l2081 0320  
                      l2073 02F0                        l2065 02D5                        l2049 02A4  
                      l2057 02B8                        l2137 0FDC                        l2129 0FB7  
                      l2161 0567                        l2091 0352                        l2083 032B  
                      l2075 02F4                        l2059 02BC                        l2139 0FE3  
                      l2147 0ECF                        l2163 056E                        l2155 053C  
                      l2093 0356                        l2085 033A                        l2077 030D  
                      l2069 02DD                        l2149 0EDF                        l1621 07D9  
                      l1613 07C1                        l2157 0541                        l2095 0357  
                      l2087 0344                        l2079 0313                        l1631 07E4  
                      l1623 07DA                        l1615 07C4                        l2159 0554  
                      l2097 0360                        l2089 0346                        l1641 07EB  
                      l1633 07E5                        l1625 07DB                        l1617 07C6  
                      l1651 07FA                        l1643 07F1                        l1635 07E6  
                      l1627 07DC                        l1619 07D3                        l1901 0464  
                      l1821 036E                        l1813 0745                        l1805 072C  
                      l1653 07FB                        l1645 07F3                        l1637 07E7  
                      l1629 07E0                        l1911 0481                        l1903 046A  
                      l1831 0381                        l1823 0372                        l1815 0755  
                      l1807 073E                        l1655 07FE                        l1647 07F6  
                      l1639 07EA                        l1921 0496                        l1913 0482  
                      l1905 0472                        l1841 0399                        l1833 0389  
                      l1825 0376                        l1761 0F1F                        l1817 075A  
                      l1649 07F9                        l1931 04BB                        l1923 049A  
                      l1915 048B                        l1907 0474                        l1851 03AC  
                      l1843 039D                        l1835 038A                        l1827 0377  
                      l1819 0369                        l1763 0F2E                        l1755 0F12  
                      l1771 0EEA                        l1941 04F9                        l1933 04C9  
                      l1925 04AE                        l1909 047D                        l1917 0491  
                      l1861 03D3                        l1853 03B4                        l1845 03A1  
                      l1829 037C                        l1837 038C                        l1765 0F33  
                      l1757 0F14                        l1773 0EF0                        l1951 0527  
                      l1943 0507                        l1935 04CD                        l1919 0495  
                      l1863 03D7                        l1855 03B5                        l1847 03A2  
                      l1839 0394                        l1759 0F1B                        l1791 0715  
                      l1783 06EE                        l1775 0EFD                        l1953 052B  
                      l1945 0516                        l1937 04E6                        l1929 04B6  
                      l1881 0418                        l1873 03EE                        l1849 03A7  
                      l1857 03B7                        l1961 0024                        l1793 0716  
                      l1785 06F9                        l1777 0F04                        l1769 0EE8  
                      l1955 052D                        l1947 051A                        l1939 04EC  
                      l1891 0436                        l1883 041A                        l1875 0400  
                      l1859 03C7                        l1867 03E0                        l1971 0037  
                      l1963 0029                        l1795 071E                        l1779 0F0A  
                      l1949 0522                        l1885 041F                        l1893 043F  
                      l1877 0408                        l1869 03E5                        l1981 0053  
                      l1973 003C                        l1965 002D                        l1797 0720  
                      l1789 0702                        ?_map 002C                        l1895 0451  
                      l1887 0431                        l1879 0410                        l1991 0066  
                      l1983 0057                        l1975 0044                        l1967 0031  
                      l1799 0724                        l1897 0452                        l1889 0435  
                      l1993 006E                        l1985 005B                        l1977 0046  
                      l1969 0032                        l1899 0460                        l1995 0070  
                      l1987 005C                        l1979 004E                        l1997 0078  
                      l1989 0061                        l1999 007D                        _ADIF 0066  
                      ?_isr 0070                        _T0IF 005A                        u1220 0F7B  
                      u1221 0F7A                        u2110 0F33                        u2111 0F32  
                      u1240 0F8D                        u2120 0EF0                        u3000 056E  
                      u2105 0F26                        u1241 0F8C                        u2121 0EEF  
                      u3001 056D                        u2210 073D                        u2211 073C  
                      u1235 0F7F                        u2300 03A7                        u2220 0744  
                      u1260 0F9E                        u2301 03A6                        u2221 0743  
                      u2205 072D                        u1261 0F9D                        u2310 03AC  
                      u2150 0F0A                        u2311 03AB                        u1255 0F8E  
                      u2151 0F09                        u2135 0EF7                        u2400 046A  
                      u2320 03C7                        u2240 0755                        u2160 06F9  
                      u1280 0FB2                        u2401 0469                        u2321 03C6  
                      u2241 0754                        u2161 06F8                        u1281 0FB1  
                      u1265 0F9A                        u2145 0EFE                        u2410 0472  
                      u2330 03E5                        u2090 0F1F                        u2250 075A  
                      u2170 0710                        u2411 0471                        u2331 03E4  
                      u2091 0F1E                        u2251 0759                        u2235 0747  
                      u1275 0FA6                        u2500 04CD                        u2340 041F  
                      u2260 0376                        u2180 0724                        u2501 04CC  
                      u2341 041E                        u2261 0375                        u2181 0723  
                      u2510 04DC                        u2430 0481                        u2270 037C  
                      u2190 072B                        u2431 0480                        u2271 037B  
                      u2191 072A                        u2175 070B                        u2520 04F9  
                      u2280 0381                        u2600 0066                        u2521 04F8  
                      u2425 0476                        u2281 0380                        u2601 0065  
                      u2530 0516                        u2450 0495                        u2370 0435  
                      u2290 03A1                        u2610 007D                        u2531 0515  
                      u2515 04D7                        u2451 0494                        u2371 0434  
                      u2355 0421                        u2291 03A0                        u2611 007C  
                      u2540 052B                        u2460 049A                        u2620 0082  
                      u2541 052A                        u2525 04F5                        u2461 0499  
                      u2445 0484                        u2365 042A                        u2621 0081  
                      u2470 04AE                        u2390 0451                        u2550 0031  
                      u2535 0512                        u2471 04AD                        u2391 0450  
                      u2711 01C4                        u2631 00CF                        u2551 0030  
                      u2480 04B5                        u2800 02A8                        u2712 01CB  
                      u2632 00D6                        u2560 0037                        u2481 04B4  
                      u2385 0438                        u2801 02A7                        u2721 01EF  
                      u2713 01D2                        u2705 01A0                        u2641 00EB  
                      u2633 00DD                        u2561 0036                        u2490 04BB  
                      u2722 01F6                        u2642 00F2                        u2570 003C  
                      u2491 04BA                        u2395 044D                        u2731 021A  
                      u2723 01FD                        u2651 0115                        u2643 00F9  
                      u2571 003B                        u2900 033A                        u2820 02BC  
                      u2740 0242                        u2732 0221                        u2652 011C  
                      u2580 005B                        u2901 0339                        u2821 02BB  
                      u2733 0228                        u2661 0131                        u2653 0123  
                      u2581 005A                        u2910 0356                        u2830 02C1  
                      u2662 0138                        u2590 0061                        u2911 0355  
                      u2831 02C0                        u2815 02AB                        u2751 024E  
                      u2663 013F                        u2591 0060                        u2840 02D5  
                      u2760 026A                        u2752 0255                        u2920 06C4  
                      u2905 0336                        u2841 02D4                        u2753 025C  
                      u2745 023D                        u2681 0165                        u2921 06C3  
                      u2850 02DC                        u2682 016C                        u2930 06D7  
                      u2851 02DB                        u2771 0276                        u2691 0190  
                      u2683 0173                        u2675 0141                        u2931 06D6  
                      u2860 02E2                        u2772 027D                        u2692 0197  
                      u2940 06E9                        u2861 02E1                        u2773 0284  
                      u2765 0265                        u2693 019E                        u2941 06E8  
                      u2870 02F4                        u2950 0FBF                        u2871 02F3  
                      u2951 0FBE                        u2880 0303                        u2785 0286  
                      u2890 0320                        u2970 0FE3                        u2891 031F  
                      u2795 029D                        u2971 0FE2                        u2885 02FE  
                      u2965 0FD1                        u2990 0EDF                        u2895 031C  
                      u2991 0EDE                        i1l80 07BA                        u2985 0FF5  
                      u2995 0EDB                        _TMR0 0001                        _adc0 0078  
                      _adc1 0076                        _adc2 00A6                        _main 053C  
                      btemp 007E                        start 000C             ___fldiv@new_exp 0039  
                     ??_map 0076                       ??_isr 0070               ___fltol@sign1 0063  
                     ?_main 0070             __end_of___fldiv 053C             __end_of___flmul 0369  
           __end_of___fltol 0766                       _ANSEL 0188                       _T2CON 0012  
           __end_of___lwdiv 0FB7                       _PORTA 0005                       _PORTB 0006  
                     _PORTC 0007                       _PORTD 0008                       _TRISA 0085  
                     _TRISB 0086                       _TRISC 0087                       _TRISD 0088  
                     _setup 07C1                       pclath 000A            __end_of_PWM_duty 1000  
                     status 0003                       wtemp0 007E             __initialization 000F  
              __end_of_main 0634                      ??_main 006B                 ?_PWM_config 0065  
               ?_PWM_manual 0020              map@nuevo_valor 0036                      _ADRESH 001E  
                    _CCPR1L 0015                      _CCPR2L 001B                      ?_setup 0070  
                    _ANSELH 0189                      i1l1721 0773                      i1l1713 0766  
                    i1l1731 0797                      i1l1723 0779                      i1l1715 076A  
                    i1l1733 079E                      i1l1741 07B9                      i1l1725 0782  
                    i1l1717 0770                      i1l1735 07A3                      i1l1727 0789  
                    i1l1719 0772                      i1l1737 07AC                      i1l1729 078E  
                    i1l1739 07B5                      u203_20 076A                      u203_21 0769  
                    u204_20 0779                      u204_21 0778                      u205_20 0782  
                    u205_21 0781                      u206_20 0797                      u206_21 0796  
                    u207_20 07AC                      u207_21 07AB                      _TMR2IF 0061  
PWM_manual@valor_comparador 0022                      ___wmul 0EE8                   ??___fldiv 002F  
                 ??___flmul 0049                   ??___fltol 005F                   ??___lwdiv 0028  
                    saved_w 007E     __end_of__initialization 0020                  ___fltol@f1 005B  
            __pcstackCOMMON 0070               __end_of_setup 0800                   ?_PWM_duty 0020  
            _OPTION_REGbits 0081                     ??_setup 0074                  __pbssBANK0 006D  
                __pbssBANK1 00A0           __end_of__Umul8_16 0F38                  __pmaintext 053C  
                   ?___wmul 0020                  __pintentry 0004                     _CCP1CON 0017  
                   _CCP2CON 001D                  ??_PWM_duty 0074                     ___fldiv 0369  
                   ___flmul 0024                     ___fltol 06EE                     ___lwdiv 0F71  
            _PWM_config$933 00A8                     __ptext1 07C1                     __ptext2 0F38  
                   __ptext3 0EE8                     __ptext4 0F71                     __ptext5 0ECF  
                   __ptext6 0FB7                     __ptext7 0634                     __ptext8 06EE  
                   __ptext9 0024                ??_PWM_config 0076                     _ondaPWM 006D  
              ??_PWM_manual 0074        end_of_initialization 0020          __end_of_PWM_config 06EE  
        __end_of_PWM_manual 0EE8                 ___fldiv@grs 003B                 ___fldiv@rem 0034  
               ___flmul@grs 0050            PWM_config@valPR2 00AC              __end_of___wmul 0F0F  
       start_initialization 000F                 __end_of_map 0F71                 __end_of_isr 07C1  
                  ??___wmul 0074                   __Umul8_16 0F0F              _valor_mapeado0 00A4  
            _valor_mapeado1 00A2              _valor_mapeado2 00A0                   ___fldiv@a 0027  
                 ___fldiv@b 002B                   ___flmul@a 0045                   ___flmul@b 0041  
               __pbssCOMMON 0076                   ___latbits 0002               __pcstackBANK0 0020  
             __pcstackBANK1 00A8            ___lwdiv@dividend 0026                    ?___fldiv 0027  
                  ?___flmul 0041                    ?___fltol 005B                  ?__Umul8_16 0074  
                  ?___lwdiv 0024           PWM_manual@ondaPWM 0020            ___lwdiv@quotient 0029  
         interrupt_function 0004              ___wmul@product 0074                    _PIE1bits 008C  
             PWM_manual@pin 0024                    _PIR1bits 000C               PWM_duty@canal 0020  
      PWM_config@periodo_ms 0067                  _ADCON0bits 001F                  _ADCON1bits 009F  
         ___wmul@multiplier 0020                    _PWM_duty 0FB7             PWM_config@canal 0065  
         PWM_duty@DutyCycle 0022                 ??__Umul8_16 0020             ___lwdiv@divisor 0024  
           ___lwdiv@counter 002B                    __ptext10 0F0F                    __ptext11 0369  
                  __ptext12 0766                    map@valor 002C                  _INTCONbits 000B  
                  intlevel1 0000                  _OSCCONbits 008F      __Umul8_16@multiplicand 0074  
      __Umul8_16@multiplier 0026           __Umul8_16@product 0022  
